
build/i2c-transfer.elf:     file format elf32-littleriscv


Disassembly of section .text:

00000000 <_start>:
   0:	02000117          	auipc	sp,0x2000
   4:	00010113          	mv	sp,sp
   8:	01000197          	auipc	gp,0x1000
   c:	7f818193          	addi	gp,gp,2040 # 1000800 <__global_pointer$>
  10:	01000737          	lui	a4,0x1000
  14:	010006b7          	lui	a3,0x1000
  18:	00070713          	mv	a4,a4
  1c:	00068693          	mv	a3,a3
  20:	00d77e63          	bgeu	a4,a3,3c <_start+0x3c>
  24:	8e99                	sub	a3,a3,a4
  26:	1dc00793          	li	a5,476
  2a:	00f68633          	add	a2,a3,a5
  2e:	4394                	lw	a3,0(a5)
  30:	0791                	addi	a5,a5,4
  32:	0711                	addi	a4,a4,4 # 1000004 <__bss_end+0x4>
  34:	fed72e23          	sw	a3,-4(a4)
  38:	fec79be3          	bne	a5,a2,2e <_start+0x2e>
  3c:	010007b7          	lui	a5,0x1000
  40:	01000737          	lui	a4,0x1000
  44:	00078793          	mv	a5,a5
  48:	00070713          	mv	a4,a4
  4c:	00e7f763          	bgeu	a5,a4,5a <_start+0x5a>
  50:	0007a023          	sw	zero,0(a5) # 1000000 <__bss_end>
  54:	0791                	addi	a5,a5,4
  56:	fef71de3          	bne	a4,a5,50 <_start+0x50>
  5a:	2ab9                	jal	1b8 <main>
  5c:	a001                	j	5c <_start+0x5c>

0000005e <test_repeated_start_read_write_byte>:
  5e:	40004737          	lui	a4,0x40004
  62:	0711                	addi	a4,a4,4 # 40004004 <__stack_top+0x3e004004>
  64:	400046b7          	lui	a3,0x40004
  68:	431c                	lw	a5,0(a4)
  6a:	8b85                	andi	a5,a5,1
  6c:	fff5                	bnez	a5,68 <test_repeated_start_read_write_byte+0xa>
  6e:	0506                	slli	a0,a0,0x1
  70:	400047b7          	lui	a5,0x40004
  74:	00156713          	ori	a4,a0,1
  78:	c798                	sw	a4,8(a5)
  7a:	4785                	li	a5,1
  7c:	40004737          	lui	a4,0x40004
  80:	c29c                	sw	a5,0(a3)
  82:	0711                	addi	a4,a4,4 # 40004004 <__stack_top+0x3e004004>
  84:	400046b7          	lui	a3,0x40004
  88:	a039                	j	96 <test_repeated_start_read_write_byte+0x38>
  8a:	431c                	lw	a5,0(a4)
  8c:	8bc1                	andi	a5,a5,16
  8e:	eb9d                	bnez	a5,c4 <test_repeated_start_read_write_byte+0x66>
  90:	431c                	lw	a5,0(a4)
  92:	8b91                	andi	a5,a5,4
  94:	eb95                	bnez	a5,c8 <test_repeated_start_read_write_byte+0x6a>
  96:	431c                	lw	a5,0(a4)
  98:	8ba1                	andi	a5,a5,8
  9a:	dbe5                	beqz	a5,8a <test_repeated_start_read_write_byte+0x2c>
  9c:	431c                	lw	a5,0(a4)
  9e:	8b89                	andi	a5,a5,2
  a0:	e795                	bnez	a5,cc <test_repeated_start_read_write_byte+0x6e>
  a2:	4789                	li	a5,2
  a4:	40004737          	lui	a4,0x40004
  a8:	c29c                	sw	a5,0(a3)
  aa:	0711                	addi	a4,a4,4 # 40004004 <__stack_top+0x3e004004>
  ac:	a039                	j	ba <test_repeated_start_read_write_byte+0x5c>
  ae:	431c                	lw	a5,0(a4)
  b0:	8bc1                	andi	a5,a5,16
  b2:	eb89                	bnez	a5,c4 <test_repeated_start_read_write_byte+0x66>
  b4:	431c                	lw	a5,0(a4)
  b6:	8b91                	andi	a5,a5,4
  b8:	eb81                	bnez	a5,c8 <test_repeated_start_read_write_byte+0x6a>
  ba:	431c                	lw	a5,0(a4)
  bc:	8ba1                	andi	a5,a5,8
  be:	dbe5                	beqz	a5,ae <test_repeated_start_read_write_byte+0x50>
  c0:	5575                	li	a0,-3
  c2:	8082                	ret
  c4:	557d                	li	a0,-1
  c6:	8082                	ret
  c8:	5579                	li	a0,-2
  ca:	8082                	ret
  cc:	4795                	li	a5,5
  ce:	40004737          	lui	a4,0x40004
  d2:	c29c                	sw	a5,0(a3)
  d4:	0711                	addi	a4,a4,4 # 40004004 <__stack_top+0x3e004004>
  d6:	400046b7          	lui	a3,0x40004
  da:	a039                	j	e8 <test_repeated_start_read_write_byte+0x8a>
  dc:	431c                	lw	a5,0(a4)
  de:	8bc1                	andi	a5,a5,16
  e0:	f3f5                	bnez	a5,c4 <test_repeated_start_read_write_byte+0x66>
  e2:	431c                	lw	a5,0(a4)
  e4:	8b91                	andi	a5,a5,4
  e6:	f3ed                	bnez	a5,c8 <test_repeated_start_read_write_byte+0x6a>
  e8:	431c                	lw	a5,0(a4)
  ea:	8ba1                	andi	a5,a5,8
  ec:	dbe5                	beqz	a5,dc <test_repeated_start_read_write_byte+0x7e>
  ee:	400047b7          	lui	a5,0x40004
  f2:	4790                	lw	a2,8(a5)
  f4:	45c5                	li	a1,17
  f6:	c788                	sw	a0,8(a5)
  f8:	40004737          	lui	a4,0x40004
  fc:	c28c                	sw	a1,0(a3)
  fe:	0711                	addi	a4,a4,4 # 40004004 <__stack_top+0x3e004004>
 100:	400046b7          	lui	a3,0x40004
 104:	a039                	j	112 <test_repeated_start_read_write_byte+0xb4>
 106:	431c                	lw	a5,0(a4)
 108:	8bc1                	andi	a5,a5,16
 10a:	ffcd                	bnez	a5,c4 <test_repeated_start_read_write_byte+0x66>
 10c:	431c                	lw	a5,0(a4)
 10e:	8b91                	andi	a5,a5,4
 110:	ffc5                	bnez	a5,c8 <test_repeated_start_read_write_byte+0x6a>
 112:	431c                	lw	a5,0(a4)
 114:	8ba1                	andi	a5,a5,8
 116:	dbe5                	beqz	a5,106 <test_repeated_start_read_write_byte+0xa8>
 118:	431c                	lw	a5,0(a4)
 11a:	8b89                	andi	a5,a5,2
 11c:	e38d                	bnez	a5,13e <test_repeated_start_read_write_byte+0xe0>
 11e:	4789                	li	a5,2
 120:	40004737          	lui	a4,0x40004
 124:	c29c                	sw	a5,0(a3)
 126:	0711                	addi	a4,a4,4 # 40004004 <__stack_top+0x3e004004>
 128:	a039                	j	136 <test_repeated_start_read_write_byte+0xd8>
 12a:	431c                	lw	a5,0(a4)
 12c:	8bc1                	andi	a5,a5,16
 12e:	fbd9                	bnez	a5,c4 <test_repeated_start_read_write_byte+0x66>
 130:	431c                	lw	a5,0(a4)
 132:	8b91                	andi	a5,a5,4
 134:	fbd1                	bnez	a5,c8 <test_repeated_start_read_write_byte+0x6a>
 136:	431c                	lw	a5,0(a4)
 138:	8ba1                	andi	a5,a5,8
 13a:	dbe5                	beqz	a5,12a <test_repeated_start_read_write_byte+0xcc>
 13c:	b751                	j	c0 <test_repeated_start_read_write_byte+0x62>
 13e:	400047b7          	lui	a5,0x40004
 142:	0ff67613          	zext.b	a2,a2
 146:	c790                	sw	a2,8(a5)
 148:	40004737          	lui	a4,0x40004
 14c:	4785                	li	a5,1
 14e:	c29c                	sw	a5,0(a3)
 150:	0711                	addi	a4,a4,4 # 40004004 <__stack_top+0x3e004004>
 152:	400046b7          	lui	a3,0x40004
 156:	a039                	j	164 <test_repeated_start_read_write_byte+0x106>
 158:	431c                	lw	a5,0(a4)
 15a:	8bc1                	andi	a5,a5,16
 15c:	f7a5                	bnez	a5,c4 <test_repeated_start_read_write_byte+0x66>
 15e:	431c                	lw	a5,0(a4)
 160:	8b91                	andi	a5,a5,4
 162:	f3bd                	bnez	a5,c8 <test_repeated_start_read_write_byte+0x6a>
 164:	431c                	lw	a5,0(a4)
 166:	8ba1                	andi	a5,a5,8
 168:	dbe5                	beqz	a5,158 <test_repeated_start_read_write_byte+0xfa>
 16a:	431c                	lw	a5,0(a4)
 16c:	4709                	li	a4,2
 16e:	c298                	sw	a4,0(a3)
 170:	8b89                	andi	a5,a5,2
 172:	ef99                	bnez	a5,190 <test_repeated_start_read_write_byte+0x132>
 174:	400047b7          	lui	a5,0x40004
 178:	0791                	addi	a5,a5,4 # 40004004 <__stack_top+0x3e004004>
 17a:	a039                	j	188 <test_repeated_start_read_write_byte+0x12a>
 17c:	4398                	lw	a4,0(a5)
 17e:	8b41                	andi	a4,a4,16
 180:	f331                	bnez	a4,c4 <test_repeated_start_read_write_byte+0x66>
 182:	4398                	lw	a4,0(a5)
 184:	8b11                	andi	a4,a4,4
 186:	f329                	bnez	a4,c8 <test_repeated_start_read_write_byte+0x6a>
 188:	4398                	lw	a4,0(a5)
 18a:	8b21                	andi	a4,a4,8
 18c:	db65                	beqz	a4,17c <test_repeated_start_read_write_byte+0x11e>
 18e:	bf0d                	j	c0 <test_repeated_start_read_write_byte+0x62>
 190:	400047b7          	lui	a5,0x40004
 194:	0791                	addi	a5,a5,4 # 40004004 <__stack_top+0x3e004004>
 196:	a039                	j	1a4 <test_repeated_start_read_write_byte+0x146>
 198:	4398                	lw	a4,0(a5)
 19a:	8b41                	andi	a4,a4,16
 19c:	f705                	bnez	a4,c4 <test_repeated_start_read_write_byte+0x66>
 19e:	4398                	lw	a4,0(a5)
 1a0:	8b11                	andi	a4,a4,4
 1a2:	f31d                	bnez	a4,c8 <test_repeated_start_read_write_byte+0x6a>
 1a4:	4398                	lw	a4,0(a5)
 1a6:	8b21                	andi	a4,a4,8
 1a8:	db65                	beqz	a4,198 <test_repeated_start_read_write_byte+0x13a>
 1aa:	400047b7          	lui	a5,0x40004
 1ae:	0791                	addi	a5,a5,4 # 40004004 <__stack_top+0x3e004004>
 1b0:	4388                	lw	a0,0(a5)
 1b2:	8905                	andi	a0,a0,1
 1b4:	fd75                	bnez	a0,1b0 <test_repeated_start_read_write_byte+0x152>
 1b6:	8082                	ret

000001b8 <main>:
 1b8:	1171                	addi	sp,sp,-4 # 1fffffc <__heap_limit+0xffc>
 1ba:	09f00513          	li	a0,159
 1be:	c006                	sw	ra,0(sp)
 1c0:	2039                	jal	1ce <i2c_init>
 1c2:	02100513          	li	a0,33
 1c6:	3d61                	jal	5e <test_repeated_start_read_write_byte>
 1c8:	0001                	nop
 1ca:	0001                	nop
 1cc:	bff5                	j	1c8 <main+0x10>

000001ce <i2c_init>:
 1ce:	400047b7          	lui	a5,0x40004
 1d2:	c7c8                	sw	a0,12(a5)
 1d4:	0001                	nop
 1d6:	0001                	nop
 1d8:	4501                	li	a0,0
 1da:	8082                	ret
