
build/i2c.elf:     file format elf32-littleriscv


Disassembly of section .text:

00000000 <_start>:
   0:	02000117          	auipc	sp,0x2000
   4:	00010113          	mv	sp,sp
   8:	2015                	jal	2c <main>
   a:	a001                	j	a <_start+0xa>

0000000c <test_read_write_bytes>:
   c:	1111                	addi	sp,sp,-28 # 1ffffe4 <i2c_ctrl_reg+0xffffdc>
   e:	4641                	li	a2,16
  10:	858a                	mv	a1,sp
  12:	ca22                	sw	s0,20(sp)
  14:	cc06                	sw	ra,24(sp)
  16:	842a                	mv	s0,a0
  18:	2aa1                	jal	170 <i2c_read>
  1a:	e509                	bnez	a0,24 <test_read_write_bytes+0x18>
  1c:	4641                	li	a2,16
  1e:	858a                	mv	a1,sp
  20:	8522                	mv	a0,s0
  22:	2899                	jal	78 <i2c_write>
  24:	40e2                	lw	ra,24(sp)
  26:	4452                	lw	s0,20(sp)
  28:	0171                	addi	sp,sp,28
  2a:	8082                	ret

0000002c <main>:
  2c:	1151                	addi	sp,sp,-12
  2e:	09f00513          	li	a0,159
  32:	c406                	sw	ra,8(sp)
  34:	2039                	jal	42 <i2c_init>
  36:	02100513          	li	a0,33
  3a:	3fc9                	jal	c <test_read_write_bytes>
  3c:	0001                	nop
  3e:	0001                	nop
  40:	bff5                	j	3c <main+0x10>

00000042 <i2c_init>:
  42:	01000637          	lui	a2,0x1000
  46:	400045b7          	lui	a1,0x40004
  4a:	400046b7          	lui	a3,0x40004
  4e:	00b62423          	sw	a1,8(a2) # 1000008 <i2c_ctrl_reg>
  52:	0691                	addi	a3,a3,4 # 40004004 <__stack_top+0x3e004004>
  54:	01000637          	lui	a2,0x1000
  58:	40004737          	lui	a4,0x40004
  5c:	00d62223          	sw	a3,4(a2) # 1000004 <i2c_status_reg>
  60:	0721                	addi	a4,a4,8 # 40004008 <__stack_top+0x3e004008>
  62:	010006b7          	lui	a3,0x1000
  66:	400047b7          	lui	a5,0x40004
  6a:	00e6a023          	sw	a4,0(a3) # 1000000 <i2c_data_reg>
  6e:	c7c8                	sw	a0,12(a5)
  70:	0001                	nop
  72:	0001                	nop
  74:	4501                	li	a0,0
  76:	8082                	ret

00000078 <i2c_write>:
  78:	c9e5                	beqz	a1,168 <i2c_write+0xf0>
  7a:	0ec05763          	blez	a2,168 <i2c_write+0xf0>
  7e:	010007b7          	lui	a5,0x1000
  82:	0047a783          	lw	a5,4(a5) # 1000004 <i2c_status_reg>
  86:	4398                	lw	a4,0(a5)
  88:	8b05                	andi	a4,a4,1
  8a:	ff75                	bnez	a4,86 <i2c_write+0xe>
  8c:	01000737          	lui	a4,0x1000
  90:	00072303          	lw	t1,0(a4) # 1000000 <i2c_data_reg>
  94:	01000737          	lui	a4,0x1000
  98:	00872683          	lw	a3,8(a4) # 1000008 <i2c_ctrl_reg>
  9c:	00151713          	slli	a4,a0,0x1
  a0:	0ff77713          	zext.b	a4,a4
  a4:	00e32023          	sw	a4,0(t1)
  a8:	4705                	li	a4,1
  aa:	c298                	sw	a4,0(a3)
  ac:	a039                	j	ba <i2c_write+0x42>
  ae:	4398                	lw	a4,0(a5)
  b0:	8b41                	andi	a4,a4,16
  b2:	e751                	bnez	a4,13e <i2c_write+0xc6>
  b4:	4398                	lw	a4,0(a5)
  b6:	8b11                	andi	a4,a4,4
  b8:	e745                	bnez	a4,160 <i2c_write+0xe8>
  ba:	4398                	lw	a4,0(a5)
  bc:	8b21                	andi	a4,a4,8
  be:	db65                	beqz	a4,ae <i2c_write+0x36>
  c0:	4398                	lw	a4,0(a5)
  c2:	962e                	add	a2,a2,a1
  c4:	4505                	li	a0,1
  c6:	8b09                	andi	a4,a4,2
  c8:	c355                	beqz	a4,16c <i2c_write+0xf4>
  ca:	0005c703          	lbu	a4,0(a1) # 40004000 <__stack_top+0x3e004000>
  ce:	00e32023          	sw	a4,0(t1)
  d2:	c288                	sw	a0,0(a3)
  d4:	a039                	j	e2 <i2c_write+0x6a>
  d6:	4398                	lw	a4,0(a5)
  d8:	8b41                	andi	a4,a4,16
  da:	ef0d                	bnez	a4,114 <i2c_write+0x9c>
  dc:	4398                	lw	a4,0(a5)
  de:	8b11                	andi	a4,a4,4
  e0:	ef29                	bnez	a4,13a <i2c_write+0xc2>
  e2:	4398                	lw	a4,0(a5)
  e4:	8b21                	andi	a4,a4,8
  e6:	db65                	beqz	a4,d6 <i2c_write+0x5e>
  e8:	4398                	lw	a4,0(a5)
  ea:	8b09                	andi	a4,a4,2
  ec:	cf25                	beqz	a4,164 <i2c_write+0xec>
  ee:	0585                	addi	a1,a1,1
  f0:	fcb61de3          	bne	a2,a1,ca <i2c_write+0x52>
  f4:	4709                	li	a4,2
  f6:	c298                	sw	a4,0(a3)
  f8:	a039                	j	106 <i2c_write+0x8e>
  fa:	4398                	lw	a4,0(a5)
  fc:	8b41                	andi	a4,a4,16
  fe:	e719                	bnez	a4,10c <i2c_write+0x94>
 100:	4398                	lw	a4,0(a5)
 102:	8b11                	andi	a4,a4,4
 104:	e701                	bnez	a4,10c <i2c_write+0x94>
 106:	4398                	lw	a4,0(a5)
 108:	8b21                	andi	a4,a4,8
 10a:	db65                	beqz	a4,fa <i2c_write+0x82>
 10c:	4388                	lw	a0,0(a5)
 10e:	8905                	andi	a0,a0,1
 110:	fd75                	bnez	a0,10c <i2c_write+0x94>
 112:	8082                	ret
 114:	557d                	li	a0,-1
 116:	4709                	li	a4,2
 118:	c298                	sw	a4,0(a3)
 11a:	4398                	lw	a4,0(a5)
 11c:	8b21                	andi	a4,a4,8
 11e:	eb11                	bnez	a4,132 <i2c_write+0xba>
 120:	4398                	lw	a4,0(a5)
 122:	8b41                	andi	a4,a4,16
 124:	e719                	bnez	a4,132 <i2c_write+0xba>
 126:	4398                	lw	a4,0(a5)
 128:	8b11                	andi	a4,a4,4
 12a:	e701                	bnez	a4,132 <i2c_write+0xba>
 12c:	4398                	lw	a4,0(a5)
 12e:	8b21                	andi	a4,a4,8
 130:	db65                	beqz	a4,120 <i2c_write+0xa8>
 132:	4398                	lw	a4,0(a5)
 134:	8b05                	andi	a4,a4,1
 136:	ff75                	bnez	a4,132 <i2c_write+0xba>
 138:	8082                	ret
 13a:	5579                	li	a0,-2
 13c:	bfe9                	j	116 <i2c_write+0x9e>
 13e:	557d                	li	a0,-1
 140:	4709                	li	a4,2
 142:	c298                	sw	a4,0(a3)
 144:	a039                	j	152 <i2c_write+0xda>
 146:	4398                	lw	a4,0(a5)
 148:	8b41                	andi	a4,a4,16
 14a:	e719                	bnez	a4,158 <i2c_write+0xe0>
 14c:	4398                	lw	a4,0(a5)
 14e:	8b11                	andi	a4,a4,4
 150:	e701                	bnez	a4,158 <i2c_write+0xe0>
 152:	4398                	lw	a4,0(a5)
 154:	8b21                	andi	a4,a4,8
 156:	db65                	beqz	a4,146 <i2c_write+0xce>
 158:	4398                	lw	a4,0(a5)
 15a:	8b05                	andi	a4,a4,1
 15c:	ff75                	bnez	a4,158 <i2c_write+0xe0>
 15e:	8082                	ret
 160:	5579                	li	a0,-2
 162:	bff9                	j	140 <i2c_write+0xc8>
 164:	5575                	li	a0,-3
 166:	bf45                	j	116 <i2c_write+0x9e>
 168:	557d                	li	a0,-1
 16a:	8082                	ret
 16c:	5575                	li	a0,-3
 16e:	bfc9                	j	140 <i2c_write+0xc8>

00000170 <i2c_read>:
 170:	14058e63          	beqz	a1,2cc <i2c_read+0x15c>
 174:	14c05c63          	blez	a2,2cc <i2c_read+0x15c>
 178:	010007b7          	lui	a5,0x1000
 17c:	0047a783          	lw	a5,4(a5) # 1000004 <i2c_status_reg>
 180:	4394                	lw	a3,0(a5)
 182:	8a85                	andi	a3,a3,1
 184:	fef5                	bnez	a3,180 <i2c_read+0x10>
 186:	01000737          	lui	a4,0x1000
 18a:	00072283          	lw	t0,0(a4) # 1000000 <i2c_data_reg>
 18e:	0506                	slli	a0,a0,0x1
 190:	01000737          	lui	a4,0x1000
 194:	00872303          	lw	t1,8(a4) # 1000008 <i2c_ctrl_reg>
 198:	00156713          	ori	a4,a0,1
 19c:	0ff77713          	zext.b	a4,a4
 1a0:	00e2a023          	sw	a4,0(t0)
 1a4:	4705                	li	a4,1
 1a6:	00e32023          	sw	a4,0(t1)
 1aa:	a801                	j	1ba <i2c_read+0x4a>
 1ac:	4398                	lw	a4,0(a5)
 1ae:	8b41                	andi	a4,a4,16
 1b0:	eb75                	bnez	a4,2a4 <i2c_read+0x134>
 1b2:	4398                	lw	a4,0(a5)
 1b4:	8b11                	andi	a4,a4,4
 1b6:	10071963          	bnez	a4,2c8 <i2c_read+0x158>
 1ba:	4398                	lw	a4,0(a5)
 1bc:	8b21                	andi	a4,a4,8
 1be:	d77d                	beqz	a4,1ac <i2c_read+0x3c>
 1c0:	4398                	lw	a4,0(a5)
 1c2:	8b09                	andi	a4,a4,2
 1c4:	10070663          	beqz	a4,2d0 <i2c_read+0x160>
 1c8:	fff60513          	addi	a0,a2,-1
 1cc:	04a04963          	bgtz	a0,21e <i2c_read+0xae>
 1d0:	4515                	li	a0,5
 1d2:	00a32023          	sw	a0,0(t1)
 1d6:	a039                	j	1e4 <i2c_read+0x74>
 1d8:	4398                	lw	a4,0(a5)
 1da:	8b41                	andi	a4,a4,16
 1dc:	e719                	bnez	a4,1ea <i2c_read+0x7a>
 1de:	4398                	lw	a4,0(a5)
 1e0:	8b11                	andi	a4,a4,4
 1e2:	e701                	bnez	a4,1ea <i2c_read+0x7a>
 1e4:	4398                	lw	a4,0(a5)
 1e6:	8b21                	andi	a4,a4,8
 1e8:	db65                	beqz	a4,1d8 <i2c_read+0x68>
 1ea:	0002a383          	lw	t2,0(t0)
 1ee:	00d58733          	add	a4,a1,a3
 1f2:	0685                	addi	a3,a3,1
 1f4:	00770023          	sb	t2,0(a4)
 1f8:	fcc6cde3          	blt	a3,a2,1d2 <i2c_read+0x62>
 1fc:	4709                	li	a4,2
 1fe:	00e32023          	sw	a4,0(t1)
 202:	a039                	j	210 <i2c_read+0xa0>
 204:	4398                	lw	a4,0(a5)
 206:	8b41                	andi	a4,a4,16
 208:	e719                	bnez	a4,216 <i2c_read+0xa6>
 20a:	4398                	lw	a4,0(a5)
 20c:	8b11                	andi	a4,a4,4
 20e:	e701                	bnez	a4,216 <i2c_read+0xa6>
 210:	4398                	lw	a4,0(a5)
 212:	8b21                	andi	a4,a4,8
 214:	db65                	beqz	a4,204 <i2c_read+0x94>
 216:	4388                	lw	a0,0(a5)
 218:	8905                	andi	a0,a0,1
 21a:	fd75                	bnez	a0,216 <i2c_read+0xa6>
 21c:	8082                	ret
 21e:	1171                	addi	sp,sp,-4
 220:	c022                	sw	s0,0(sp)
 222:	43b5                	li	t2,13
 224:	00732023          	sw	t2,0(t1)
 228:	a039                	j	236 <i2c_read+0xc6>
 22a:	4398                	lw	a4,0(a5)
 22c:	8b41                	andi	a4,a4,16
 22e:	e719                	bnez	a4,23c <i2c_read+0xcc>
 230:	4398                	lw	a4,0(a5)
 232:	8b11                	andi	a4,a4,4
 234:	e701                	bnez	a4,23c <i2c_read+0xcc>
 236:	4398                	lw	a4,0(a5)
 238:	8b21                	andi	a4,a4,8
 23a:	db65                	beqz	a4,22a <i2c_read+0xba>
 23c:	0002a403          	lw	s0,0(t0)
 240:	00d58733          	add	a4,a1,a3
 244:	0685                	addi	a3,a3,1
 246:	00870023          	sb	s0,0(a4)
 24a:	fca6cde3          	blt	a3,a0,224 <i2c_read+0xb4>
 24e:	4515                	li	a0,5
 250:	02c6d763          	bge	a3,a2,27e <i2c_read+0x10e>
 254:	00a32023          	sw	a0,0(t1)
 258:	a039                	j	266 <i2c_read+0xf6>
 25a:	4398                	lw	a4,0(a5)
 25c:	8b41                	andi	a4,a4,16
 25e:	e719                	bnez	a4,26c <i2c_read+0xfc>
 260:	4398                	lw	a4,0(a5)
 262:	8b11                	andi	a4,a4,4
 264:	e701                	bnez	a4,26c <i2c_read+0xfc>
 266:	4398                	lw	a4,0(a5)
 268:	8b21                	andi	a4,a4,8
 26a:	db65                	beqz	a4,25a <i2c_read+0xea>
 26c:	0002a383          	lw	t2,0(t0)
 270:	00d58733          	add	a4,a1,a3
 274:	0685                	addi	a3,a3,1
 276:	00770023          	sb	t2,0(a4)
 27a:	fcc6cde3          	blt	a3,a2,254 <i2c_read+0xe4>
 27e:	4709                	li	a4,2
 280:	00e32023          	sw	a4,0(t1)
 284:	a039                	j	292 <i2c_read+0x122>
 286:	4398                	lw	a4,0(a5)
 288:	8b41                	andi	a4,a4,16
 28a:	e719                	bnez	a4,298 <i2c_read+0x128>
 28c:	4398                	lw	a4,0(a5)
 28e:	8b11                	andi	a4,a4,4
 290:	e701                	bnez	a4,298 <i2c_read+0x128>
 292:	4398                	lw	a4,0(a5)
 294:	8b21                	andi	a4,a4,8
 296:	db65                	beqz	a4,286 <i2c_read+0x116>
 298:	4388                	lw	a0,0(a5)
 29a:	8905                	andi	a0,a0,1
 29c:	fd75                	bnez	a0,298 <i2c_read+0x128>
 29e:	4402                	lw	s0,0(sp)
 2a0:	0111                	addi	sp,sp,4
 2a2:	8082                	ret
 2a4:	557d                	li	a0,-1
 2a6:	4709                	li	a4,2
 2a8:	00e32023          	sw	a4,0(t1)
 2ac:	a039                	j	2ba <i2c_read+0x14a>
 2ae:	4398                	lw	a4,0(a5)
 2b0:	8b41                	andi	a4,a4,16
 2b2:	e719                	bnez	a4,2c0 <i2c_read+0x150>
 2b4:	4398                	lw	a4,0(a5)
 2b6:	8b11                	andi	a4,a4,4
 2b8:	e701                	bnez	a4,2c0 <i2c_read+0x150>
 2ba:	4398                	lw	a4,0(a5)
 2bc:	8b21                	andi	a4,a4,8
 2be:	db65                	beqz	a4,2ae <i2c_read+0x13e>
 2c0:	4398                	lw	a4,0(a5)
 2c2:	8b05                	andi	a4,a4,1
 2c4:	ff75                	bnez	a4,2c0 <i2c_read+0x150>
 2c6:	8082                	ret
 2c8:	5579                	li	a0,-2
 2ca:	bff1                	j	2a6 <i2c_read+0x136>
 2cc:	557d                	li	a0,-1
 2ce:	8082                	ret
 2d0:	5575                	li	a0,-3
 2d2:	bfd1                	j	2a6 <i2c_read+0x136>
