
build/spi-transfer.elf:     file format elf32-littleriscv


Disassembly of section .text:

00000000 <_start>:
   0:	02000117          	auipc	sp,0x2000
   4:	00010113          	mv	sp,sp
   8:	01000197          	auipc	gp,0x1000
   c:	7f818193          	addi	gp,gp,2040 # 1000800 <__global_pointer$>
  10:	01000737          	lui	a4,0x1000
  14:	010006b7          	lui	a3,0x1000
  18:	00070713          	mv	a4,a4
  1c:	00068693          	mv	a3,a3
  20:	00d77e63          	bgeu	a4,a3,3c <_start+0x3c>
  24:	8e99                	sub	a3,a3,a4
  26:	18000793          	li	a5,384
  2a:	00f68633          	add	a2,a3,a5
  2e:	4394                	lw	a3,0(a5)
  30:	0791                	addi	a5,a5,4
  32:	0711                	addi	a4,a4,4 # 1000004 <__bss_end+0x4>
  34:	fed72e23          	sw	a3,-4(a4)
  38:	fec79be3          	bne	a5,a2,2e <_start+0x2e>
  3c:	010007b7          	lui	a5,0x1000
  40:	01000737          	lui	a4,0x1000
  44:	00078793          	mv	a5,a5
  48:	00070713          	mv	a4,a4
  4c:	00e7f763          	bgeu	a5,a4,5a <_start+0x5a>
  50:	0007a023          	sw	zero,0(a5) # 1000000 <__bss_end>
  54:	0791                	addi	a5,a5,4
  56:	fef71de3          	bne	a4,a5,50 <_start+0x50>
  5a:	2011                	jal	5e <main>
  5c:	a001                	j	5c <_start+0x5c>

0000005e <main>:
  5e:	1131                	addi	sp,sp,-20 # 1ffffec <__heap_limit+0xfec>
  60:	c806                	sw	ra,16(sp)
  62:	c622                	sw	s0,12(sp)
  64:	c426                	sw	s1,8(sp)
  66:	0840                	addi	s0,sp,20
  68:	450d                	li	a0,3
  6a:	fe242623          	sw	sp,-20(s0)
  6e:	209d                	jal	d4 <spi_init>
  70:	4585                	li	a1,1
  72:	4509                	li	a0,2
  74:	2861                	jal	10c <gpio_set_direction>
  76:	4509                	li	a0,2
  78:	20e1                	jal	140 <gpio_set_pin>
  7a:	4509                	li	a0,2
  7c:	7111                	addi	sp,sp,-256
  7e:	fe242823          	sw	sp,-16(s0)
  82:	4481                	li	s1,0
  84:	28e9                	jal	15e <gpio_clear_pin>
  86:	0ff4f513          	zext.b	a0,s1
  8a:	28b1                	jal	e6 <spi_transfer_byte>
  8c:	ff042783          	lw	a5,-16(s0)
  90:	00978733          	add	a4,a5,s1
  94:	00a70023          	sb	a0,0(a4) # 1000000 <__bss_end>
  98:	0485                	addi	s1,s1,1
  9a:	10000713          	li	a4,256
  9e:	fee494e3          	bne	s1,a4,86 <main+0x28>
  a2:	4509                	li	a0,2
  a4:	2871                	jal	140 <gpio_set_pin>
  a6:	4509                	li	a0,2
  a8:	285d                	jal	15e <gpio_clear_pin>
  aa:	ff042483          	lw	s1,-16(s0)
  ae:	10048793          	addi	a5,s1,256
  b2:	fef42823          	sw	a5,-16(s0)
  b6:	0004c503          	lbu	a0,0(s1)
  ba:	0485                	addi	s1,s1,1
  bc:	202d                	jal	e6 <spi_transfer_byte>
  be:	ff042783          	lw	a5,-16(s0)
  c2:	fef49ae3          	bne	s1,a5,b6 <main+0x58>
  c6:	4509                	li	a0,2
  c8:	28a5                	jal	140 <gpio_set_pin>
  ca:	fec42103          	lw	sp,-20(s0)
  ce:	0001                	nop
  d0:	0001                	nop
  d2:	a001                	j	d2 <main+0x74>

000000d4 <spi_init>:
  d4:	400057b7          	lui	a5,0x40005
  d8:	0ff57513          	zext.b	a0,a0
  dc:	cb88                	sw	a0,16(a5)
  de:	0001                	nop
  e0:	0001                	nop
  e2:	4501                	li	a0,0
  e4:	8082                	ret

000000e6 <spi_transfer_byte>:
  e6:	400057b7          	lui	a5,0x40005
  ea:	c788                	sw	a0,8(a5)
  ec:	4685                	li	a3,1
  ee:	400057b7          	lui	a5,0x40005
  f2:	c394                	sw	a3,0(a5)
  f4:	00478713          	addi	a4,a5,4 # 40005004 <__stack_top+0x3e005004>
  f8:	431c                	lw	a5,0(a4)
  fa:	8b89                	andi	a5,a5,2
  fc:	dff5                	beqz	a5,f8 <spi_transfer_byte+0x12>
  fe:	400057b7          	lui	a5,0x40005
 102:	4318                	lw	a4,0(a4)
 104:	47c8                	lw	a0,12(a5)
 106:	0ff57513          	zext.b	a0,a0
 10a:	8082                	ret

0000010c <gpio_set_direction>:
 10c:	47fd                	li	a5,31
 10e:	02a7e763          	bltu	a5,a0,13c <gpio_set_direction+0x30>
 112:	4785                	li	a5,1
 114:	00a79533          	sll	a0,a5,a0
 118:	00f58b63          	beq	a1,a5,12e <gpio_set_direction+0x22>
 11c:	400017b7          	lui	a5,0x40001
 120:	4398                	lw	a4,0(a5)
 122:	fff54513          	not	a0,a0
 126:	8d79                	and	a0,a0,a4
 128:	c388                	sw	a0,0(a5)
 12a:	4501                	li	a0,0
 12c:	8082                	ret
 12e:	40001737          	lui	a4,0x40001
 132:	431c                	lw	a5,0(a4)
 134:	8fc9                	or	a5,a5,a0
 136:	c31c                	sw	a5,0(a4)
 138:	4501                	li	a0,0
 13a:	8082                	ret
 13c:	557d                	li	a0,-1
 13e:	8082                	ret

00000140 <gpio_set_pin>:
 140:	47fd                	li	a5,31
 142:	00a7ec63          	bltu	a5,a0,15a <gpio_set_pin+0x1a>
 146:	40001737          	lui	a4,0x40001
 14a:	4354                	lw	a3,4(a4)
 14c:	4785                	li	a5,1
 14e:	00a797b3          	sll	a5,a5,a0
 152:	8fd5                	or	a5,a5,a3
 154:	c35c                	sw	a5,4(a4)
 156:	4501                	li	a0,0
 158:	8082                	ret
 15a:	557d                	li	a0,-1
 15c:	8082                	ret

0000015e <gpio_clear_pin>:
 15e:	47fd                	li	a5,31
 160:	00a7ee63          	bltu	a5,a0,17c <gpio_clear_pin+0x1e>
 164:	40001737          	lui	a4,0x40001
 168:	4354                	lw	a3,4(a4)
 16a:	4785                	li	a5,1
 16c:	00a797b3          	sll	a5,a5,a0
 170:	fff7c793          	not	a5,a5
 174:	8ff5                	and	a5,a5,a3
 176:	c35c                	sw	a5,4(a4)
 178:	4501                	li	a0,0
 17a:	8082                	ret
 17c:	557d                	li	a0,-1
 17e:	8082                	ret
