
build/spi-transfer.elf:     file format elf32-littleriscv


Disassembly of section .text:

00000000 <_start>:
   0:	02000117          	auipc	sp,0x2000
   4:	00010113          	mv	sp,sp
   8:	01000197          	auipc	gp,0x1000
   c:	7f818193          	addi	gp,gp,2040 # 1000800 <__global_pointer$>
  10:	01000737          	lui	a4,0x1000
  14:	010006b7          	lui	a3,0x1000
  18:	00070713          	mv	a4,a4
  1c:	00068693          	mv	a3,a3
  20:	00d77e63          	bgeu	a4,a3,3c <_start+0x3c>
  24:	8e99                	sub	a3,a3,a4
  26:	17c00793          	li	a5,380
  2a:	00f68633          	add	a2,a3,a5
  2e:	4394                	lw	a3,0(a5)
  30:	0791                	addi	a5,a5,4
  32:	0711                	addi	a4,a4,4 # 1000004 <__bss_end+0x4>
  34:	fed72e23          	sw	a3,-4(a4)
  38:	fec79be3          	bne	a5,a2,2e <_start+0x2e>
  3c:	010007b7          	lui	a5,0x1000
  40:	01000737          	lui	a4,0x1000
  44:	00078793          	mv	a5,a5
  48:	00070713          	mv	a4,a4
  4c:	00e7f763          	bgeu	a5,a4,5a <_start+0x5a>
  50:	0007a023          	sw	zero,0(a5) # 1000000 <__bss_end>
  54:	0791                	addi	a5,a5,4
  56:	fef71de3          	bne	a4,a5,50 <_start+0x50>
  5a:	2011                	jal	5e <main>
  5c:	a001                	j	5c <_start+0x5c>

0000005e <main>:
  5e:	1131                	addi	sp,sp,-20 # 1ffffec <__heap_limit+0xfec>
  60:	c806                	sw	ra,16(sp)
  62:	c622                	sw	s0,12(sp)
  64:	c426                	sw	s1,8(sp)
  66:	0840                	addi	s0,sp,20
  68:	450d                	li	a0,3
  6a:	fe242623          	sw	sp,-20(s0)
  6e:	208d                	jal	d0 <spi_init>
  70:	4585                	li	a1,1
  72:	4509                	li	a0,2
  74:	2851                	jal	108 <gpio_set_direction>
  76:	4509                	li	a0,2
  78:	20d1                	jal	13c <gpio_set_pin>
  7a:	1101                	addi	sp,sp,-32
  7c:	fe242823          	sw	sp,-16(s0)
  80:	4481                	li	s1,0
  82:	4509                	li	a0,2
  84:	28d9                	jal	15a <gpio_clear_pin>
  86:	0ff4f513          	zext.b	a0,s1
  8a:	28a1                	jal	e2 <spi_transfer_byte>
  8c:	ff042783          	lw	a5,-16(s0)
  90:	97a6                	add	a5,a5,s1
  92:	00a78023          	sb	a0,0(a5)
  96:	4509                	li	a0,2
  98:	2055                	jal	13c <gpio_set_pin>
  9a:	0485                	addi	s1,s1,1
  9c:	02000793          	li	a5,32
  a0:	fef491e3          	bne	s1,a5,82 <main+0x24>
  a4:	ff042483          	lw	s1,-16(s0)
  a8:	97a6                	add	a5,a5,s1
  aa:	fef42823          	sw	a5,-16(s0)
  ae:	4509                	li	a0,2
  b0:	206d                	jal	15a <gpio_clear_pin>
  b2:	0004c503          	lbu	a0,0(s1)
  b6:	0485                	addi	s1,s1,1
  b8:	202d                	jal	e2 <spi_transfer_byte>
  ba:	4509                	li	a0,2
  bc:	2041                	jal	13c <gpio_set_pin>
  be:	ff042783          	lw	a5,-16(s0)
  c2:	fef496e3          	bne	s1,a5,ae <main+0x50>
  c6:	fec42103          	lw	sp,-20(s0)
  ca:	0001                	nop
  cc:	0001                	nop
  ce:	a001                	j	ce <main+0x70>

000000d0 <spi_init>:
  d0:	400057b7          	lui	a5,0x40005
  d4:	0ff57513          	zext.b	a0,a0
  d8:	cb88                	sw	a0,16(a5)
  da:	0001                	nop
  dc:	0001                	nop
  de:	4501                	li	a0,0
  e0:	8082                	ret

000000e2 <spi_transfer_byte>:
  e2:	400057b7          	lui	a5,0x40005
  e6:	c788                	sw	a0,8(a5)
  e8:	4685                	li	a3,1
  ea:	400057b7          	lui	a5,0x40005
  ee:	c394                	sw	a3,0(a5)
  f0:	00478713          	addi	a4,a5,4 # 40005004 <__stack_top+0x3e005004>
  f4:	431c                	lw	a5,0(a4)
  f6:	8b89                	andi	a5,a5,2
  f8:	dff5                	beqz	a5,f4 <spi_transfer_byte+0x12>
  fa:	400057b7          	lui	a5,0x40005
  fe:	4318                	lw	a4,0(a4)
 100:	47c8                	lw	a0,12(a5)
 102:	0ff57513          	zext.b	a0,a0
 106:	8082                	ret

00000108 <gpio_set_direction>:
 108:	47fd                	li	a5,31
 10a:	02a7e763          	bltu	a5,a0,138 <gpio_set_direction+0x30>
 10e:	4785                	li	a5,1
 110:	00a79533          	sll	a0,a5,a0
 114:	00f58b63          	beq	a1,a5,12a <gpio_set_direction+0x22>
 118:	400017b7          	lui	a5,0x40001
 11c:	4398                	lw	a4,0(a5)
 11e:	fff54513          	not	a0,a0
 122:	8d79                	and	a0,a0,a4
 124:	c388                	sw	a0,0(a5)
 126:	4501                	li	a0,0
 128:	8082                	ret
 12a:	40001737          	lui	a4,0x40001
 12e:	431c                	lw	a5,0(a4)
 130:	8fc9                	or	a5,a5,a0
 132:	c31c                	sw	a5,0(a4)
 134:	4501                	li	a0,0
 136:	8082                	ret
 138:	557d                	li	a0,-1
 13a:	8082                	ret

0000013c <gpio_set_pin>:
 13c:	47fd                	li	a5,31
 13e:	00a7ec63          	bltu	a5,a0,156 <gpio_set_pin+0x1a>
 142:	40001737          	lui	a4,0x40001
 146:	4354                	lw	a3,4(a4)
 148:	4785                	li	a5,1
 14a:	00a797b3          	sll	a5,a5,a0
 14e:	8fd5                	or	a5,a5,a3
 150:	c35c                	sw	a5,4(a4)
 152:	4501                	li	a0,0
 154:	8082                	ret
 156:	557d                	li	a0,-1
 158:	8082                	ret

0000015a <gpio_clear_pin>:
 15a:	47fd                	li	a5,31
 15c:	00a7ee63          	bltu	a5,a0,178 <gpio_clear_pin+0x1e>
 160:	40001737          	lui	a4,0x40001
 164:	4354                	lw	a3,4(a4)
 166:	4785                	li	a5,1
 168:	00a797b3          	sll	a5,a5,a0
 16c:	fff7c793          	not	a5,a5
 170:	8ff5                	and	a5,a5,a3
 172:	c35c                	sw	a5,4(a4)
 174:	4501                	li	a0,0
 176:	8082                	ret
 178:	557d                	li	a0,-1
 17a:	8082                	ret
