
/home/thanhtran/fpga/rv32e/tb/riscv-tests/rv32ui/addi.S.v2:     file format elf32-littleriscv


Disassembly of section .text:

00000000 <_start>:
   0:	a835                	j	3c <reset_vector>
   2:	0001                	nop

00000004 <trap_vector>:
   4:	34202f73          	csrr	t5,mcause
   8:	4fa1                	li	t6,8
   a:	03ff0463          	beq	t5,t6,32 <write_tohost>
   e:	4fa5                	li	t6,9
  10:	03ff0163          	beq	t5,t6,32 <write_tohost>
  14:	4fad                	li	t6,11
  16:	01ff0e63          	beq	t5,t6,32 <write_tohost>
  1a:	00000f13          	li	t5,0
  1e:	000f0363          	beqz	t5,24 <trap_vector+0x20>
  22:	8f02                	jr	t5
  24:	34202f73          	csrr	t5,mcause
  28:	000f5363          	bgez	t5,2e <handle_exception>
  2c:	a009                	j	2e <handle_exception>

0000002e <handle_exception>:
  2e:	5391e193          	ori	gp,gp,1337

00000032 <write_tohost>:
  32:	01000f17          	auipc	t5,0x1000
  36:	fc3f2723          	sw	gp,-50(t5) # 1000000 <__DATA_BEGIN__>
  3a:	bfe5                	j	32 <write_tohost>

0000003c <reset_vector>:
  3c:	4081                	li	ra,0
  3e:	4101                	li	sp,0
  40:	4181                	li	gp,0
  42:	4201                	li	tp,0
  44:	4281                	li	t0,0
  46:	4301                	li	t1,0
  48:	4381                	li	t2,0
  4a:	4401                	li	s0,0
  4c:	4481                	li	s1,0
  4e:	4501                	li	a0,0
  50:	4581                	li	a1,0
  52:	4601                	li	a2,0
  54:	4681                	li	a3,0
  56:	4701                	li	a4,0
  58:	4781                	li	a5,0
  5a:	4801                	li	a6,0
  5c:	4881                	li	a7,0
  5e:	4901                	li	s2,0
  60:	4981                	li	s3,0
  62:	4a01                	li	s4,0
  64:	4a81                	li	s5,0
  66:	4b01                	li	s6,0
  68:	4b81                	li	s7,0
  6a:	4c01                	li	s8,0
  6c:	4c81                	li	s9,0
  6e:	4d01                	li	s10,0
  70:	4d81                	li	s11,0
  72:	4e01                	li	t3,0
  74:	4e81                	li	t4,0
  76:	4f01                	li	t5,0
  78:	4f81                	li	t6,0
  7a:	f1402573          	csrr	a0,mhartid
  7e:	e101                	bnez	a0,7e <reset_vector+0x42>
  80:	00000297          	auipc	t0,0x0
  84:	01028293          	addi	t0,t0,16 # 90 <reset_vector+0x54>
  88:	30529073          	csrw	mtvec,t0
  8c:	18005073          	csrwi	satp,0
  90:	00000297          	auipc	t0,0x0
  94:	01c28293          	addi	t0,t0,28 # ac <reset_vector+0x70>
  98:	30529073          	csrw	mtvec,t0
  9c:	800002b7          	lui	t0,0x80000
  a0:	12fd                	addi	t0,t0,-1 # 7fffffff <__global_pointer$+0x7efff7ff>
  a2:	3b029073          	csrw	pmpaddr0,t0
  a6:	42fd                	li	t0,31
  a8:	3a029073          	csrw	pmpcfg0,t0
  ac:	30405073          	csrwi	mie,0
  b0:	00000297          	auipc	t0,0x0
  b4:	01428293          	addi	t0,t0,20 # c4 <reset_vector+0x88>
  b8:	30529073          	csrw	mtvec,t0
  bc:	30205073          	csrwi	medeleg,0
  c0:	30305073          	csrwi	mideleg,0
  c4:	4181                	li	gp,0
  c6:	00000297          	auipc	t0,0x0
  ca:	f3e28293          	addi	t0,t0,-194 # 4 <trap_vector>
  ce:	30529073          	csrw	mtvec,t0
  d2:	4505                	li	a0,1
  d4:	057e                	slli	a0,a0,0x1f
  d6:	00054a63          	bltz	a0,ea <reset_vector+0xae>
  da:	0ff0000f          	fence
  de:	4185                	li	gp,1
  e0:	05d00893          	li	a7,93
  e4:	4501                	li	a0,0
  e6:	00000073          	ecall
  ea:	00000293          	li	t0,0
  ee:	00028963          	beqz	t0,100 <reset_vector+0xc4>
  f2:	10529073          	csrw	stvec,t0
  f6:	62ad                	lui	t0,0xb
  f8:	10928293          	addi	t0,t0,265 # b109 <pass+0xac83>
  fc:	30229073          	csrw	medeleg,t0
 100:	30005073          	csrwi	mstatus,0
 104:	00000297          	auipc	t0,0x0
 108:	01428293          	addi	t0,t0,20 # 118 <test_2>
 10c:	34129073          	csrw	mepc,t0
 110:	f1402573          	csrr	a0,mhartid
 114:	30200073          	mret

00000118 <test_2>:
 118:	4189                	li	gp,2
 11a:	4581                	li	a1,0
 11c:	4601                	li	a2,0
 11e:	00c58733          	add	a4,a1,a2
 122:	4381                	li	t2,0
 124:	34771563          	bne	a4,t2,46e <fail>

00000128 <test_3>:
 128:	418d                	li	gp,3
 12a:	4585                	li	a1,1
 12c:	4605                	li	a2,1
 12e:	00c58733          	add	a4,a1,a2
 132:	4389                	li	t2,2
 134:	32771d63          	bne	a4,t2,46e <fail>

00000138 <test_4>:
 138:	4191                	li	gp,4
 13a:	458d                	li	a1,3
 13c:	461d                	li	a2,7
 13e:	00c58733          	add	a4,a1,a2
 142:	43a9                	li	t2,10
 144:	32771563          	bne	a4,t2,46e <fail>

00000148 <test_5>:
 148:	4195                	li	gp,5
 14a:	4581                	li	a1,0
 14c:	7661                	lui	a2,0xffff8
 14e:	00c58733          	add	a4,a1,a2
 152:	73e1                	lui	t2,0xffff8
 154:	30771d63          	bne	a4,t2,46e <fail>

00000158 <test_6>:
 158:	4199                	li	gp,6
 15a:	800005b7          	lui	a1,0x80000
 15e:	4601                	li	a2,0
 160:	00c58733          	add	a4,a1,a2
 164:	800003b7          	lui	t2,0x80000
 168:	30771363          	bne	a4,t2,46e <fail>

0000016c <test_7>:
 16c:	419d                	li	gp,7
 16e:	800005b7          	lui	a1,0x80000
 172:	7661                	lui	a2,0xffff8
 174:	00c58733          	add	a4,a1,a2
 178:	7fff83b7          	lui	t2,0x7fff8
 17c:	2e771963          	bne	a4,t2,46e <fail>

00000180 <test_8>:
 180:	41a1                	li	gp,8
 182:	4581                	li	a1,0
 184:	6621                	lui	a2,0x8
 186:	167d                	addi	a2,a2,-1 # 7fff <pass+0x7b79>
 188:	00c58733          	add	a4,a1,a2
 18c:	63a1                	lui	t2,0x8
 18e:	13fd                	addi	t2,t2,-1 # 7fff <pass+0x7b79>
 190:	2c771f63          	bne	a4,t2,46e <fail>

00000194 <test_9>:
 194:	41a5                	li	gp,9
 196:	800005b7          	lui	a1,0x80000
 19a:	15fd                	addi	a1,a1,-1 # 7fffffff <__global_pointer$+0x7efff7ff>
 19c:	4601                	li	a2,0
 19e:	00c58733          	add	a4,a1,a2
 1a2:	800003b7          	lui	t2,0x80000
 1a6:	13fd                	addi	t2,t2,-1 # 7fffffff <__global_pointer$+0x7efff7ff>
 1a8:	2c771363          	bne	a4,t2,46e <fail>

000001ac <test_10>:
 1ac:	41a9                	li	gp,10
 1ae:	800005b7          	lui	a1,0x80000
 1b2:	15fd                	addi	a1,a1,-1 # 7fffffff <__global_pointer$+0x7efff7ff>
 1b4:	6621                	lui	a2,0x8
 1b6:	167d                	addi	a2,a2,-1 # 7fff <pass+0x7b79>
 1b8:	00c58733          	add	a4,a1,a2
 1bc:	800083b7          	lui	t2,0x80008
 1c0:	13f9                	addi	t2,t2,-2 # 80007ffe <__global_pointer$+0x7f0077fe>
 1c2:	2a771663          	bne	a4,t2,46e <fail>

000001c6 <test_11>:
 1c6:	41ad                	li	gp,11
 1c8:	800005b7          	lui	a1,0x80000
 1cc:	6621                	lui	a2,0x8
 1ce:	167d                	addi	a2,a2,-1 # 7fff <pass+0x7b79>
 1d0:	00c58733          	add	a4,a1,a2
 1d4:	800083b7          	lui	t2,0x80008
 1d8:	13fd                	addi	t2,t2,-1 # 80007fff <__global_pointer$+0x7f0077ff>
 1da:	28771a63          	bne	a4,t2,46e <fail>

000001de <test_12>:
 1de:	41b1                	li	gp,12
 1e0:	800005b7          	lui	a1,0x80000
 1e4:	15fd                	addi	a1,a1,-1 # 7fffffff <__global_pointer$+0x7efff7ff>
 1e6:	7661                	lui	a2,0xffff8
 1e8:	00c58733          	add	a4,a1,a2
 1ec:	7fff83b7          	lui	t2,0x7fff8
 1f0:	13fd                	addi	t2,t2,-1 # 7fff7fff <__global_pointer$+0x7eff77ff>
 1f2:	26771e63          	bne	a4,t2,46e <fail>

000001f6 <test_13>:
 1f6:	41b5                	li	gp,13
 1f8:	4581                	li	a1,0
 1fa:	fff00613          	li	a2,-1
 1fe:	00c58733          	add	a4,a1,a2
 202:	fff00393          	li	t2,-1
 206:	26771463          	bne	a4,t2,46e <fail>

0000020a <test_14>:
 20a:	41b9                	li	gp,14
 20c:	fff00593          	li	a1,-1
 210:	4605                	li	a2,1
 212:	00c58733          	add	a4,a1,a2
 216:	4381                	li	t2,0
 218:	24771b63          	bne	a4,t2,46e <fail>

0000021c <test_15>:
 21c:	41bd                	li	gp,15
 21e:	fff00593          	li	a1,-1
 222:	fff00613          	li	a2,-1
 226:	00c58733          	add	a4,a1,a2
 22a:	ffe00393          	li	t2,-2
 22e:	24771063          	bne	a4,t2,46e <fail>

00000232 <test_16>:
 232:	41c1                	li	gp,16
 234:	4585                	li	a1,1
 236:	80000637          	lui	a2,0x80000
 23a:	167d                	addi	a2,a2,-1 # 7fffffff <__global_pointer$+0x7efff7ff>
 23c:	00c58733          	add	a4,a1,a2
 240:	800003b7          	lui	t2,0x80000
 244:	22771563          	bne	a4,t2,46e <fail>

00000248 <test_17>:
 248:	41c5                	li	gp,17
 24a:	45b5                	li	a1,13
 24c:	462d                	li	a2,11
 24e:	95b2                	add	a1,a1,a2
 250:	43e1                	li	t2,24
 252:	20759e63          	bne	a1,t2,46e <fail>

00000256 <test_18>:
 256:	41c9                	li	gp,18
 258:	45b9                	li	a1,14
 25a:	462d                	li	a2,11
 25c:	962e                	add	a2,a2,a1
 25e:	43e5                	li	t2,25
 260:	20761763          	bne	a2,t2,46e <fail>

00000264 <test_19>:
 264:	41cd                	li	gp,19
 266:	45b5                	li	a1,13
 268:	95ae                	add	a1,a1,a1
 26a:	43e9                	li	t2,26
 26c:	20759163          	bne	a1,t2,46e <fail>

00000270 <test_20>:
 270:	41d1                	li	gp,20
 272:	4201                	li	tp,0
 274:	40b5                	li	ra,13
 276:	412d                	li	sp,11
 278:	00208733          	add	a4,ra,sp
 27c:	833a                	mv	t1,a4
 27e:	0205                	addi	tp,tp,1 # 1 <_start+0x1>
 280:	4289                	li	t0,2
 282:	fe5219e3          	bne	tp,t0,274 <test_20+0x4>
 286:	43e1                	li	t2,24
 288:	1e731363          	bne	t1,t2,46e <fail>

0000028c <test_21>:
 28c:	41d5                	li	gp,21
 28e:	4201                	li	tp,0
 290:	40b9                	li	ra,14
 292:	412d                	li	sp,11
 294:	00208733          	add	a4,ra,sp
 298:	0001                	nop
 29a:	833a                	mv	t1,a4
 29c:	0205                	addi	tp,tp,1 # 1 <_start+0x1>
 29e:	4289                	li	t0,2
 2a0:	fe5218e3          	bne	tp,t0,290 <test_21+0x4>
 2a4:	43e5                	li	t2,25
 2a6:	1c731463          	bne	t1,t2,46e <fail>

000002aa <test_22>:
 2aa:	41d9                	li	gp,22
 2ac:	4201                	li	tp,0
 2ae:	40bd                	li	ra,15
 2b0:	412d                	li	sp,11
 2b2:	00208733          	add	a4,ra,sp
 2b6:	0001                	nop
 2b8:	0001                	nop
 2ba:	833a                	mv	t1,a4
 2bc:	0205                	addi	tp,tp,1 # 1 <_start+0x1>
 2be:	4289                	li	t0,2
 2c0:	fe5217e3          	bne	tp,t0,2ae <test_22+0x4>
 2c4:	43e9                	li	t2,26
 2c6:	1a731463          	bne	t1,t2,46e <fail>

000002ca <test_23>:
 2ca:	41dd                	li	gp,23
 2cc:	4201                	li	tp,0
 2ce:	40b5                	li	ra,13
 2d0:	412d                	li	sp,11
 2d2:	00208733          	add	a4,ra,sp
 2d6:	0205                	addi	tp,tp,1 # 1 <_start+0x1>
 2d8:	4289                	li	t0,2
 2da:	fe521ae3          	bne	tp,t0,2ce <test_23+0x4>
 2de:	43e1                	li	t2,24
 2e0:	18771763          	bne	a4,t2,46e <fail>

000002e4 <test_24>:
 2e4:	41e1                	li	gp,24
 2e6:	4201                	li	tp,0
 2e8:	40b9                	li	ra,14
 2ea:	412d                	li	sp,11
 2ec:	0001                	nop
 2ee:	00208733          	add	a4,ra,sp
 2f2:	0205                	addi	tp,tp,1 # 1 <_start+0x1>
 2f4:	4289                	li	t0,2
 2f6:	fe5219e3          	bne	tp,t0,2e8 <test_24+0x4>
 2fa:	43e5                	li	t2,25
 2fc:	16771963          	bne	a4,t2,46e <fail>

00000300 <test_25>:
 300:	41e5                	li	gp,25
 302:	4201                	li	tp,0
 304:	40bd                	li	ra,15
 306:	412d                	li	sp,11
 308:	0001                	nop
 30a:	0001                	nop
 30c:	00208733          	add	a4,ra,sp
 310:	0205                	addi	tp,tp,1 # 1 <_start+0x1>
 312:	4289                	li	t0,2
 314:	fe5218e3          	bne	tp,t0,304 <test_25+0x4>
 318:	43e9                	li	t2,26
 31a:	14771a63          	bne	a4,t2,46e <fail>

0000031e <test_26>:
 31e:	41e9                	li	gp,26
 320:	4201                	li	tp,0
 322:	40b5                	li	ra,13
 324:	0001                	nop
 326:	412d                	li	sp,11
 328:	00208733          	add	a4,ra,sp
 32c:	0205                	addi	tp,tp,1 # 1 <_start+0x1>
 32e:	4289                	li	t0,2
 330:	fe5219e3          	bne	tp,t0,322 <test_26+0x4>
 334:	43e1                	li	t2,24
 336:	12771c63          	bne	a4,t2,46e <fail>

0000033a <test_27>:
 33a:	41ed                	li	gp,27
 33c:	4201                	li	tp,0
 33e:	40b9                	li	ra,14
 340:	0001                	nop
 342:	412d                	li	sp,11
 344:	0001                	nop
 346:	00208733          	add	a4,ra,sp
 34a:	0205                	addi	tp,tp,1 # 1 <_start+0x1>
 34c:	4289                	li	t0,2
 34e:	fe5218e3          	bne	tp,t0,33e <test_27+0x4>
 352:	43e5                	li	t2,25
 354:	10771d63          	bne	a4,t2,46e <fail>

00000358 <test_28>:
 358:	41f1                	li	gp,28
 35a:	4201                	li	tp,0
 35c:	40bd                	li	ra,15
 35e:	0001                	nop
 360:	0001                	nop
 362:	412d                	li	sp,11
 364:	00208733          	add	a4,ra,sp
 368:	0205                	addi	tp,tp,1 # 1 <_start+0x1>
 36a:	4289                	li	t0,2
 36c:	fe5218e3          	bne	tp,t0,35c <test_28+0x4>
 370:	43e9                	li	t2,26
 372:	0e771e63          	bne	a4,t2,46e <fail>

00000376 <test_29>:
 376:	41f5                	li	gp,29
 378:	4201                	li	tp,0
 37a:	412d                	li	sp,11
 37c:	40b5                	li	ra,13
 37e:	00208733          	add	a4,ra,sp
 382:	0205                	addi	tp,tp,1 # 1 <_start+0x1>
 384:	4289                	li	t0,2
 386:	fe521ae3          	bne	tp,t0,37a <test_29+0x4>
 38a:	43e1                	li	t2,24
 38c:	0e771163          	bne	a4,t2,46e <fail>

00000390 <test_30>:
 390:	41f9                	li	gp,30
 392:	4201                	li	tp,0
 394:	412d                	li	sp,11
 396:	40b9                	li	ra,14
 398:	0001                	nop
 39a:	00208733          	add	a4,ra,sp
 39e:	0205                	addi	tp,tp,1 # 1 <_start+0x1>
 3a0:	4289                	li	t0,2
 3a2:	fe5219e3          	bne	tp,t0,394 <test_30+0x4>
 3a6:	43e5                	li	t2,25
 3a8:	0c771363          	bne	a4,t2,46e <fail>

000003ac <test_31>:
 3ac:	41fd                	li	gp,31
 3ae:	4201                	li	tp,0
 3b0:	412d                	li	sp,11
 3b2:	40bd                	li	ra,15
 3b4:	0001                	nop
 3b6:	0001                	nop
 3b8:	00208733          	add	a4,ra,sp
 3bc:	0205                	addi	tp,tp,1 # 1 <_start+0x1>
 3be:	4289                	li	t0,2
 3c0:	fe5218e3          	bne	tp,t0,3b0 <test_31+0x4>
 3c4:	43e9                	li	t2,26
 3c6:	0a771463          	bne	a4,t2,46e <fail>

000003ca <test_32>:
 3ca:	02000193          	li	gp,32
 3ce:	4201                	li	tp,0
 3d0:	412d                	li	sp,11
 3d2:	0001                	nop
 3d4:	40b5                	li	ra,13
 3d6:	00208733          	add	a4,ra,sp
 3da:	0205                	addi	tp,tp,1 # 1 <_start+0x1>
 3dc:	4289                	li	t0,2
 3de:	fe5219e3          	bne	tp,t0,3d0 <test_32+0x6>
 3e2:	43e1                	li	t2,24
 3e4:	08771563          	bne	a4,t2,46e <fail>

000003e8 <test_33>:
 3e8:	02100193          	li	gp,33
 3ec:	4201                	li	tp,0
 3ee:	412d                	li	sp,11
 3f0:	0001                	nop
 3f2:	40b9                	li	ra,14
 3f4:	0001                	nop
 3f6:	00208733          	add	a4,ra,sp
 3fa:	0205                	addi	tp,tp,1 # 1 <_start+0x1>
 3fc:	4289                	li	t0,2
 3fe:	fe5218e3          	bne	tp,t0,3ee <test_33+0x6>
 402:	43e5                	li	t2,25
 404:	06771563          	bne	a4,t2,46e <fail>

00000408 <test_34>:
 408:	02200193          	li	gp,34
 40c:	4201                	li	tp,0
 40e:	412d                	li	sp,11
 410:	0001                	nop
 412:	0001                	nop
 414:	40bd                	li	ra,15
 416:	00208733          	add	a4,ra,sp
 41a:	0205                	addi	tp,tp,1 # 1 <_start+0x1>
 41c:	4289                	li	t0,2
 41e:	fe5218e3          	bne	tp,t0,40e <test_34+0x6>
 422:	43e9                	li	t2,26
 424:	04771563          	bne	a4,t2,46e <fail>

00000428 <test_35>:
 428:	02300193          	li	gp,35
 42c:	40bd                	li	ra,15
 42e:	8106                	mv	sp,ra
 430:	43bd                	li	t2,15
 432:	02711e63          	bne	sp,t2,46e <fail>

00000436 <test_36>:
 436:	02400193          	li	gp,36
 43a:	02000093          	li	ra,32
 43e:	00008133          	add	sp,ra,zero
 442:	02000393          	li	t2,32
 446:	02711463          	bne	sp,t2,46e <fail>

0000044a <test_37>:
 44a:	02500193          	li	gp,37
 44e:	000000b3          	add	ra,zero,zero
 452:	4381                	li	t2,0
 454:	00709d63          	bne	ra,t2,46e <fail>

00000458 <test_38>:
 458:	02600193          	li	gp,38
 45c:	40c1                	li	ra,16
 45e:	4179                	li	sp,30
 460:	00208033          	add	zero,ra,sp
 464:	4381                	li	t2,0
 466:	00701463          	bne	zero,t2,46e <fail>
 46a:	00301e63          	bne	zero,gp,486 <pass>

0000046e <fail>:
 46e:	0ff0000f          	fence
 472:	00018063          	beqz	gp,472 <fail+0x4>
 476:	0186                	slli	gp,gp,0x1
 478:	0011e193          	ori	gp,gp,1
 47c:	05d00893          	li	a7,93
 480:	850e                	mv	a0,gp
 482:	00000073          	ecall

00000486 <pass>:
 486:	0ff0000f          	fence
 48a:	4185                	li	gp,1
 48c:	05d00893          	li	a7,93
 490:	4501                	li	a0,0
 492:	00000073          	ecall
	...
