
/home/thanhtran/fpga/rv32e/tb/riscv-tests/rv32ui/jalr.S.v2:     file format elf32-littleriscv


Disassembly of section .text:

00000000 <_start>:
   0:	a835                	j	3c <reset_vector>
   2:	0001                	nop

00000004 <trap_vector>:
   4:	34202f73          	csrr	t5,mcause
   8:	4fa1                	li	t6,8
   a:	03ff0463          	beq	t5,t6,32 <write_tohost>
   e:	4fa5                	li	t6,9
  10:	03ff0163          	beq	t5,t6,32 <write_tohost>
  14:	4fad                	li	t6,11
  16:	01ff0e63          	beq	t5,t6,32 <write_tohost>
  1a:	00000f13          	li	t5,0
  1e:	000f0363          	beqz	t5,24 <trap_vector+0x20>
  22:	8f02                	jr	t5
  24:	34202f73          	csrr	t5,mcause
  28:	000f5363          	bgez	t5,2e <handle_exception>
  2c:	a009                	j	2e <handle_exception>

0000002e <handle_exception>:
  2e:	5391e193          	ori	gp,gp,1337

00000032 <write_tohost>:
  32:	01000f17          	auipc	t5,0x1000
  36:	fc3f2723          	sw	gp,-50(t5) # 1000000 <__DATA_BEGIN__>
  3a:	bfe5                	j	32 <write_tohost>

0000003c <reset_vector>:
  3c:	4081                	li	ra,0
  3e:	4101                	li	sp,0
  40:	4181                	li	gp,0
  42:	4201                	li	tp,0
  44:	4281                	li	t0,0
  46:	4301                	li	t1,0
  48:	4381                	li	t2,0
  4a:	4401                	li	s0,0
  4c:	4481                	li	s1,0
  4e:	4501                	li	a0,0
  50:	4581                	li	a1,0
  52:	4601                	li	a2,0
  54:	4681                	li	a3,0
  56:	4701                	li	a4,0
  58:	4781                	li	a5,0
  5a:	4801                	li	a6,0
  5c:	4881                	li	a7,0
  5e:	4901                	li	s2,0
  60:	4981                	li	s3,0
  62:	4a01                	li	s4,0
  64:	4a81                	li	s5,0
  66:	4b01                	li	s6,0
  68:	4b81                	li	s7,0
  6a:	4c01                	li	s8,0
  6c:	4c81                	li	s9,0
  6e:	4d01                	li	s10,0
  70:	4d81                	li	s11,0
  72:	4e01                	li	t3,0
  74:	4e81                	li	t4,0
  76:	4f01                	li	t5,0
  78:	4f81                	li	t6,0
  7a:	f1402573          	csrr	a0,mhartid
  7e:	e101                	bnez	a0,7e <reset_vector+0x42>
  80:	00000297          	auipc	t0,0x0
  84:	01028293          	addi	t0,t0,16 # 90 <reset_vector+0x54>
  88:	30529073          	csrw	mtvec,t0
  8c:	18005073          	csrwi	satp,0
  90:	00000297          	auipc	t0,0x0
  94:	01c28293          	addi	t0,t0,28 # ac <reset_vector+0x70>
  98:	30529073          	csrw	mtvec,t0
  9c:	800002b7          	lui	t0,0x80000
  a0:	12fd                	addi	t0,t0,-1 # 7fffffff <__global_pointer$+0x7efff7ff>
  a2:	3b029073          	csrw	pmpaddr0,t0
  a6:	42fd                	li	t0,31
  a8:	3a029073          	csrw	pmpcfg0,t0
  ac:	30405073          	csrwi	mie,0
  b0:	00000297          	auipc	t0,0x0
  b4:	01428293          	addi	t0,t0,20 # c4 <reset_vector+0x88>
  b8:	30529073          	csrw	mtvec,t0
  bc:	30205073          	csrwi	medeleg,0
  c0:	30305073          	csrwi	mideleg,0
  c4:	4181                	li	gp,0
  c6:	00000297          	auipc	t0,0x0
  ca:	f3e28293          	addi	t0,t0,-194 # 4 <trap_vector>
  ce:	30529073          	csrw	mtvec,t0
  d2:	4505                	li	a0,1
  d4:	057e                	slli	a0,a0,0x1f
  d6:	00054a63          	bltz	a0,ea <reset_vector+0xae>
  da:	0ff0000f          	fence
  de:	4185                	li	gp,1
  e0:	05d00893          	li	a7,93
  e4:	4501                	li	a0,0
  e6:	00000073          	ecall
  ea:	00000293          	li	t0,0
  ee:	00028963          	beqz	t0,100 <reset_vector+0xc4>
  f2:	10529073          	csrw	stvec,t0
  f6:	62ad                	lui	t0,0xb
  f8:	10928293          	addi	t0,t0,265 # b109 <pass+0xaf0d>
  fc:	30229073          	csrw	medeleg,t0
 100:	30005073          	csrwi	mstatus,0
 104:	00000297          	auipc	t0,0x0
 108:	01428293          	addi	t0,t0,20 # 118 <test_2>
 10c:	34129073          	csrw	mepc,t0
 110:	f1402573          	csrr	a0,mhartid
 114:	30200073          	mret

00000118 <test_2>:
 118:	4189                	li	gp,2
 11a:	4281                	li	t0,0
 11c:	00000317          	auipc	t1,0x0
 120:	00e30313          	addi	t1,t1,14 # 12a <target_2>
 124:	000302e7          	jalr	t0,t1

00000128 <linkaddr_2>:
 128:	a875                	j	1e4 <fail>

0000012a <target_2>:
 12a:	00000317          	auipc	t1,0x0
 12e:	ffe30313          	addi	t1,t1,-2 # 128 <linkaddr_2>
 132:	0a629963          	bne	t0,t1,1e4 <fail>

00000136 <test_3>:
 136:	418d                	li	gp,3
 138:	00000297          	auipc	t0,0x0
 13c:	00e28293          	addi	t0,t0,14 # 146 <target_3>
 140:	000282e7          	jalr	t0,t0

00000144 <linkaddr_3>:
 144:	a045                	j	1e4 <fail>

00000146 <target_3>:
 146:	00000317          	auipc	t1,0x0
 14a:	ffe30313          	addi	t1,t1,-2 # 144 <linkaddr_3>
 14e:	08629b63          	bne	t0,t1,1e4 <fail>

00000152 <test_4>:
 152:	4191                	li	gp,4
 154:	4201                	li	tp,0
 156:	00000317          	auipc	t1,0x0
 15a:	01030313          	addi	t1,t1,16 # 166 <test_4+0x14>
 15e:	000306e7          	jalr	a3,t1
 162:	08301163          	bne	zero,gp,1e4 <fail>
 166:	0205                	addi	tp,tp,1 # 1 <_start+0x1>
 168:	4289                	li	t0,2
 16a:	fe5216e3          	bne	tp,t0,156 <test_4+0x4>

0000016e <test_5>:
 16e:	4195                	li	gp,5
 170:	4201                	li	tp,0
 172:	00000317          	auipc	t1,0x0
 176:	01230313          	addi	t1,t1,18 # 184 <test_5+0x16>
 17a:	0001                	nop
 17c:	000306e7          	jalr	a3,t1
 180:	06301263          	bne	zero,gp,1e4 <fail>
 184:	0205                	addi	tp,tp,1 # 1 <_start+0x1>
 186:	4289                	li	t0,2
 188:	fe5215e3          	bne	tp,t0,172 <test_5+0x4>

0000018c <test_6>:
 18c:	4199                	li	gp,6
 18e:	4201                	li	tp,0
 190:	00000317          	auipc	t1,0x0
 194:	01430313          	addi	t1,t1,20 # 1a4 <test_6+0x18>
 198:	0001                	nop
 19a:	0001                	nop
 19c:	000306e7          	jalr	a3,t1
 1a0:	04301263          	bne	zero,gp,1e4 <fail>
 1a4:	0205                	addi	tp,tp,1 # 1 <_start+0x1>
 1a6:	4289                	li	t0,2
 1a8:	fe5214e3          	bne	tp,t0,190 <test_6+0x4>

000001ac <test_7>:
 1ac:	00700193          	li	gp,7
 1b0:	00100293          	li	t0,1
 1b4:	00000317          	auipc	t1,0x0
 1b8:	01c30313          	addi	t1,t1,28 # 1d0 <test_7+0x24>
 1bc:	ffc30067          	jr	-4(t1)
 1c0:	00128293          	addi	t0,t0,1
 1c4:	00128293          	addi	t0,t0,1
 1c8:	00128293          	addi	t0,t0,1
 1cc:	00128293          	addi	t0,t0,1
 1d0:	00128293          	addi	t0,t0,1
 1d4:	00128293          	addi	t0,t0,1
 1d8:	00400393          	li	t2,4
 1dc:	00729463          	bne	t0,t2,1e4 <fail>
 1e0:	00301e63          	bne	zero,gp,1fc <pass>

000001e4 <fail>:
 1e4:	0ff0000f          	fence
 1e8:	00018063          	beqz	gp,1e8 <fail+0x4>
 1ec:	0186                	slli	gp,gp,0x1
 1ee:	0011e193          	ori	gp,gp,1
 1f2:	05d00893          	li	a7,93
 1f6:	850e                	mv	a0,gp
 1f8:	00000073          	ecall

000001fc <pass>:
 1fc:	0ff0000f          	fence
 200:	4185                	li	gp,1
 202:	05d00893          	li	a7,93
 206:	4501                	li	a0,0
 208:	00000073          	ecall
	...
