
/home/thanhtran/fpga/rv32e/tb/riscv-tests/rv32ui/lbu.S.v2:     file format elf32-littleriscv


Disassembly of section .text:

00000000 <_start>:
   0:	a825                	j	38 <reset_vector>
   2:	0001                	nop

00000004 <trap_vector>:
   4:	34202f73          	csrr	t5,mcause
   8:	4fa1                	li	t6,8
   a:	03ff0463          	beq	t5,t6,32 <write_tohost>
   e:	4fa5                	li	t6,9
  10:	03ff0163          	beq	t5,t6,32 <write_tohost>
  14:	4fad                	li	t6,11
  16:	01ff0e63          	beq	t5,t6,32 <write_tohost>
  1a:	00000f13          	li	t5,0
  1e:	000f0363          	beqz	t5,24 <trap_vector+0x20>
  22:	8f02                	jr	t5
  24:	34202f73          	csrr	t5,mcause
  28:	000f5363          	bgez	t5,2e <handle_exception>
  2c:	a009                	j	2e <handle_exception>

0000002e <handle_exception>:
  2e:	5391e193          	ori	gp,gp,1337

00000032 <write_tohost>:
  32:	8431a023          	sw	gp,-1984(gp) # 1000040 <tohost>
  36:	bff5                	j	32 <write_tohost>

00000038 <reset_vector>:
  38:	4081                	li	ra,0
  3a:	4101                	li	sp,0
  3c:	4181                	li	gp,0
  3e:	4201                	li	tp,0
  40:	4281                	li	t0,0
  42:	4301                	li	t1,0
  44:	4381                	li	t2,0
  46:	4401                	li	s0,0
  48:	4481                	li	s1,0
  4a:	4501                	li	a0,0
  4c:	4581                	li	a1,0
  4e:	4601                	li	a2,0
  50:	4681                	li	a3,0
  52:	4701                	li	a4,0
  54:	4781                	li	a5,0
  56:	4801                	li	a6,0
  58:	4881                	li	a7,0
  5a:	4901                	li	s2,0
  5c:	4981                	li	s3,0
  5e:	4a01                	li	s4,0
  60:	4a81                	li	s5,0
  62:	4b01                	li	s6,0
  64:	4b81                	li	s7,0
  66:	4c01                	li	s8,0
  68:	4c81                	li	s9,0
  6a:	4d01                	li	s10,0
  6c:	4d81                	li	s11,0
  6e:	4e01                	li	t3,0
  70:	4e81                	li	t4,0
  72:	4f01                	li	t5,0
  74:	4f81                	li	t6,0
  76:	f1402573          	csrr	a0,mhartid
  7a:	e101                	bnez	a0,7a <reset_vector+0x42>
  7c:	00000297          	auipc	t0,0x0
  80:	01028293          	addi	t0,t0,16 # 8c <reset_vector+0x54>
  84:	30529073          	csrw	mtvec,t0
  88:	18005073          	csrwi	satp,0
  8c:	00000297          	auipc	t0,0x0
  90:	01c28293          	addi	t0,t0,28 # a8 <reset_vector+0x70>
  94:	30529073          	csrw	mtvec,t0
  98:	800002b7          	lui	t0,0x80000
  9c:	12fd                	addi	t0,t0,-1 # 7fffffff <__global_pointer$+0x7efff7ff>
  9e:	3b029073          	csrw	pmpaddr0,t0
  a2:	42fd                	li	t0,31
  a4:	3a029073          	csrw	pmpcfg0,t0
  a8:	30405073          	csrwi	mie,0
  ac:	00000297          	auipc	t0,0x0
  b0:	01428293          	addi	t0,t0,20 # c0 <reset_vector+0x88>
  b4:	30529073          	csrw	mtvec,t0
  b8:	30205073          	csrwi	medeleg,0
  bc:	30305073          	csrwi	mideleg,0
  c0:	4181                	li	gp,0
  c2:	00000297          	auipc	t0,0x0
  c6:	f4228293          	addi	t0,t0,-190 # 4 <trap_vector>
  ca:	30529073          	csrw	mtvec,t0
  ce:	4505                	li	a0,1
  d0:	057e                	slli	a0,a0,0x1f
  d2:	00054a63          	bltz	a0,e6 <reset_vector+0xae>
  d6:	0ff0000f          	fence
  da:	4185                	li	gp,1
  dc:	05d00893          	li	a7,93
  e0:	4501                	li	a0,0
  e2:	00000073          	ecall
  e6:	00000293          	li	t0,0
  ea:	00028963          	beqz	t0,fc <reset_vector+0xc4>
  ee:	10529073          	csrw	stvec,t0
  f2:	62ad                	lui	t0,0xb
  f4:	10928293          	addi	t0,t0,265 # b109 <pass+0xadf3>
  f8:	30229073          	csrw	medeleg,t0
  fc:	30005073          	csrwi	mstatus,0
 100:	00000297          	auipc	t0,0x0
 104:	01428293          	addi	t0,t0,20 # 114 <test_2>
 108:	34129073          	csrw	mepc,t0
 10c:	f1402573          	csrr	a0,mhartid
 110:	30200073          	mret

00000114 <test_2>:
 114:	4189                	li	gp,2
 116:	0ff00793          	li	a5,255
 11a:	01000117          	auipc	sp,0x1000
 11e:	ee610113          	addi	sp,sp,-282 # 1000000 <__DATA_BEGIN__>
 122:	00014703          	lbu	a4,0(sp)
 126:	0ff00393          	li	t2,255
 12a:	1c771a63          	bne	a4,t2,2fe <fail>

0000012e <test_3>:
 12e:	418d                	li	gp,3
 130:	4781                	li	a5,0
 132:	01000117          	auipc	sp,0x1000
 136:	ece10113          	addi	sp,sp,-306 # 1000000 <__DATA_BEGIN__>
 13a:	00114703          	lbu	a4,1(sp)
 13e:	4381                	li	t2,0
 140:	1a771f63          	bne	a4,t2,2fe <fail>

00000144 <test_4>:
 144:	4191                	li	gp,4
 146:	0f000793          	li	a5,240
 14a:	01000117          	auipc	sp,0x1000
 14e:	eb610113          	addi	sp,sp,-330 # 1000000 <__DATA_BEGIN__>
 152:	00214703          	lbu	a4,2(sp)
 156:	0f000393          	li	t2,240
 15a:	1a771263          	bne	a4,t2,2fe <fail>

0000015e <test_5>:
 15e:	4195                	li	gp,5
 160:	47bd                	li	a5,15
 162:	01000117          	auipc	sp,0x1000
 166:	e9e10113          	addi	sp,sp,-354 # 1000000 <__DATA_BEGIN__>
 16a:	00314703          	lbu	a4,3(sp)
 16e:	43bd                	li	t2,15
 170:	18771763          	bne	a4,t2,2fe <fail>

00000174 <test_6>:
 174:	4199                	li	gp,6
 176:	0ff00793          	li	a5,255
 17a:	01000117          	auipc	sp,0x1000
 17e:	e8910113          	addi	sp,sp,-375 # 1000003 <tdat4>
 182:	ffd14703          	lbu	a4,-3(sp)
 186:	0ff00393          	li	t2,255
 18a:	16771a63          	bne	a4,t2,2fe <fail>

0000018e <test_7>:
 18e:	419d                	li	gp,7
 190:	4781                	li	a5,0
 192:	01000117          	auipc	sp,0x1000
 196:	e7110113          	addi	sp,sp,-399 # 1000003 <tdat4>
 19a:	ffe14703          	lbu	a4,-2(sp)
 19e:	4381                	li	t2,0
 1a0:	14771f63          	bne	a4,t2,2fe <fail>

000001a4 <test_8>:
 1a4:	41a1                	li	gp,8
 1a6:	0f000793          	li	a5,240
 1aa:	01000117          	auipc	sp,0x1000
 1ae:	e5910113          	addi	sp,sp,-423 # 1000003 <tdat4>
 1b2:	fff14703          	lbu	a4,-1(sp)
 1b6:	0f000393          	li	t2,240
 1ba:	14771263          	bne	a4,t2,2fe <fail>

000001be <test_9>:
 1be:	41a5                	li	gp,9
 1c0:	47bd                	li	a5,15
 1c2:	01000117          	auipc	sp,0x1000
 1c6:	e4110113          	addi	sp,sp,-447 # 1000003 <tdat4>
 1ca:	00014703          	lbu	a4,0(sp)
 1ce:	43bd                	li	t2,15
 1d0:	12771763          	bne	a4,t2,2fe <fail>

000001d4 <test_10>:
 1d4:	41a9                	li	gp,10
 1d6:	01000097          	auipc	ra,0x1000
 1da:	e2a08093          	addi	ra,ra,-470 # 1000000 <__DATA_BEGIN__>
 1de:	1081                	addi	ra,ra,-32
 1e0:	0200c283          	lbu	t0,32(ra)
 1e4:	0ff00393          	li	t2,255
 1e8:	10729b63          	bne	t0,t2,2fe <fail>

000001ec <test_11>:
 1ec:	41ad                	li	gp,11
 1ee:	01000097          	auipc	ra,0x1000
 1f2:	e1208093          	addi	ra,ra,-494 # 1000000 <__DATA_BEGIN__>
 1f6:	10e9                	addi	ra,ra,-6
 1f8:	0070c283          	lbu	t0,7(ra)
 1fc:	4381                	li	t2,0
 1fe:	10729063          	bne	t0,t2,2fe <fail>

00000202 <test_12>:
 202:	41b1                	li	gp,12
 204:	4201                	li	tp,0
 206:	01000697          	auipc	a3,0x1000
 20a:	dfb68693          	addi	a3,a3,-517 # 1000001 <tdat2>
 20e:	0016c703          	lbu	a4,1(a3)
 212:	833a                	mv	t1,a4
 214:	0f000393          	li	t2,240
 218:	0e731363          	bne	t1,t2,2fe <fail>
 21c:	0205                	addi	tp,tp,1 # 1 <_start+0x1>
 21e:	4289                	li	t0,2
 220:	fe5213e3          	bne	tp,t0,206 <test_12+0x4>

00000224 <test_13>:
 224:	41b5                	li	gp,13
 226:	4201                	li	tp,0
 228:	01000697          	auipc	a3,0x1000
 22c:	dda68693          	addi	a3,a3,-550 # 1000002 <tdat3>
 230:	0016c703          	lbu	a4,1(a3)
 234:	0001                	nop
 236:	833a                	mv	t1,a4
 238:	43bd                	li	t2,15
 23a:	0c731263          	bne	t1,t2,2fe <fail>
 23e:	0205                	addi	tp,tp,1 # 1 <_start+0x1>
 240:	4289                	li	t0,2
 242:	fe5213e3          	bne	tp,t0,228 <test_13+0x4>

00000246 <test_14>:
 246:	41b9                	li	gp,14
 248:	4201                	li	tp,0
 24a:	01000697          	auipc	a3,0x1000
 24e:	db668693          	addi	a3,a3,-586 # 1000000 <__DATA_BEGIN__>
 252:	0016c703          	lbu	a4,1(a3)
 256:	0001                	nop
 258:	0001                	nop
 25a:	833a                	mv	t1,a4
 25c:	4381                	li	t2,0
 25e:	0a731063          	bne	t1,t2,2fe <fail>
 262:	0205                	addi	tp,tp,1 # 1 <_start+0x1>
 264:	4289                	li	t0,2
 266:	fe5212e3          	bne	tp,t0,24a <test_14+0x4>

0000026a <test_15>:
 26a:	41bd                	li	gp,15
 26c:	4201                	li	tp,0
 26e:	01000697          	auipc	a3,0x1000
 272:	d9368693          	addi	a3,a3,-621 # 1000001 <tdat2>
 276:	0016c703          	lbu	a4,1(a3)
 27a:	0f000393          	li	t2,240
 27e:	08771063          	bne	a4,t2,2fe <fail>
 282:	0205                	addi	tp,tp,1 # 1 <_start+0x1>
 284:	4289                	li	t0,2
 286:	fe5214e3          	bne	tp,t0,26e <test_15+0x4>

0000028a <test_16>:
 28a:	41c1                	li	gp,16
 28c:	4201                	li	tp,0
 28e:	01000697          	auipc	a3,0x1000
 292:	d7468693          	addi	a3,a3,-652 # 1000002 <tdat3>
 296:	0001                	nop
 298:	0016c703          	lbu	a4,1(a3)
 29c:	43bd                	li	t2,15
 29e:	06771063          	bne	a4,t2,2fe <fail>
 2a2:	0205                	addi	tp,tp,1 # 1 <_start+0x1>
 2a4:	4289                	li	t0,2
 2a6:	fe5214e3          	bne	tp,t0,28e <test_16+0x4>

000002aa <test_17>:
 2aa:	41c5                	li	gp,17
 2ac:	4201                	li	tp,0
 2ae:	01000697          	auipc	a3,0x1000
 2b2:	d5268693          	addi	a3,a3,-686 # 1000000 <__DATA_BEGIN__>
 2b6:	0001                	nop
 2b8:	0001                	nop
 2ba:	0016c703          	lbu	a4,1(a3)
 2be:	4381                	li	t2,0
 2c0:	02771f63          	bne	a4,t2,2fe <fail>
 2c4:	0205                	addi	tp,tp,1 # 1 <_start+0x1>
 2c6:	4289                	li	t0,2
 2c8:	fe5213e3          	bne	tp,t0,2ae <test_17+0x4>

000002cc <test_18>:
 2cc:	41c9                	li	gp,18
 2ce:	01000297          	auipc	t0,0x1000
 2d2:	d3228293          	addi	t0,t0,-718 # 1000000 <__DATA_BEGIN__>
 2d6:	0002c103          	lbu	sp,0(t0)
 2da:	4109                	li	sp,2
 2dc:	4389                	li	t2,2
 2de:	02711063          	bne	sp,t2,2fe <fail>

000002e2 <test_19>:
 2e2:	41cd                	li	gp,19
 2e4:	01000297          	auipc	t0,0x1000
 2e8:	d1c28293          	addi	t0,t0,-740 # 1000000 <__DATA_BEGIN__>
 2ec:	0002c103          	lbu	sp,0(t0)
 2f0:	0001                	nop
 2f2:	4109                	li	sp,2
 2f4:	4389                	li	t2,2
 2f6:	00711463          	bne	sp,t2,2fe <fail>
 2fa:	00301e63          	bne	zero,gp,316 <pass>

000002fe <fail>:
 2fe:	0ff0000f          	fence
 302:	00018063          	beqz	gp,302 <fail+0x4>
 306:	0186                	slli	gp,gp,0x1
 308:	0011e193          	ori	gp,gp,1
 30c:	05d00893          	li	a7,93
 310:	850e                	mv	a0,gp
 312:	00000073          	ecall

00000316 <pass>:
 316:	0ff0000f          	fence
 31a:	4185                	li	gp,1
 31c:	05d00893          	li	a7,93
 320:	4501                	li	a0,0
 322:	00000073          	ecall
	...
