
/home/thanhtran/fpga/rv32e/tb/riscv-tests/rv32ui/ld_st.S.v2:     file format elf32-littleriscv


Disassembly of section .text:

00000000 <_start>:
   0:	a825                	j	38 <reset_vector>
   2:	0001                	nop

00000004 <trap_vector>:
   4:	34202f73          	csrr	t5,mcause
   8:	4fa1                	li	t6,8
   a:	03ff0463          	beq	t5,t6,32 <write_tohost>
   e:	4fa5                	li	t6,9
  10:	03ff0163          	beq	t5,t6,32 <write_tohost>
  14:	4fad                	li	t6,11
  16:	01ff0e63          	beq	t5,t6,32 <write_tohost>
  1a:	00000f13          	li	t5,0
  1e:	000f0363          	beqz	t5,24 <trap_vector+0x20>
  22:	8f02                	jr	t5
  24:	34202f73          	csrr	t5,mcause
  28:	000f5363          	bgez	t5,2e <handle_exception>
  2c:	a009                	j	2e <handle_exception>

0000002e <handle_exception>:
  2e:	5391e193          	ori	gp,gp,1337

00000032 <write_tohost>:
  32:	8831a023          	sw	gp,-1920(gp) # 1000080 <tohost>
  36:	bff5                	j	32 <write_tohost>

00000038 <reset_vector>:
  38:	4081                	li	ra,0
  3a:	4101                	li	sp,0
  3c:	4181                	li	gp,0
  3e:	4201                	li	tp,0
  40:	4281                	li	t0,0
  42:	4301                	li	t1,0
  44:	4381                	li	t2,0
  46:	4401                	li	s0,0
  48:	4481                	li	s1,0
  4a:	4501                	li	a0,0
  4c:	4581                	li	a1,0
  4e:	4601                	li	a2,0
  50:	4681                	li	a3,0
  52:	4701                	li	a4,0
  54:	4781                	li	a5,0
  56:	4801                	li	a6,0
  58:	4881                	li	a7,0
  5a:	4901                	li	s2,0
  5c:	4981                	li	s3,0
  5e:	4a01                	li	s4,0
  60:	4a81                	li	s5,0
  62:	4b01                	li	s6,0
  64:	4b81                	li	s7,0
  66:	4c01                	li	s8,0
  68:	4c81                	li	s9,0
  6a:	4d01                	li	s10,0
  6c:	4d81                	li	s11,0
  6e:	4e01                	li	t3,0
  70:	4e81                	li	t4,0
  72:	4f01                	li	t5,0
  74:	4f81                	li	t6,0
  76:	f1402573          	csrr	a0,mhartid
  7a:	e101                	bnez	a0,7a <reset_vector+0x42>
  7c:	00000297          	auipc	t0,0x0
  80:	01028293          	addi	t0,t0,16 # 8c <reset_vector+0x54>
  84:	30529073          	csrw	mtvec,t0
  88:	18005073          	csrwi	satp,0
  8c:	00000297          	auipc	t0,0x0
  90:	01c28293          	addi	t0,t0,28 # a8 <reset_vector+0x70>
  94:	30529073          	csrw	mtvec,t0
  98:	800002b7          	lui	t0,0x80000
  9c:	12fd                	addi	t0,t0,-1 # 7fffffff <__global_pointer$+0x7efff7ff>
  9e:	3b029073          	csrw	pmpaddr0,t0
  a2:	42fd                	li	t0,31
  a4:	3a029073          	csrw	pmpcfg0,t0
  a8:	30405073          	csrwi	mie,0
  ac:	00000297          	auipc	t0,0x0
  b0:	01428293          	addi	t0,t0,20 # c0 <reset_vector+0x88>
  b4:	30529073          	csrw	mtvec,t0
  b8:	30205073          	csrwi	medeleg,0
  bc:	30305073          	csrwi	mideleg,0
  c0:	4181                	li	gp,0
  c2:	00000297          	auipc	t0,0x0
  c6:	f4228293          	addi	t0,t0,-190 # 4 <trap_vector>
  ca:	30529073          	csrw	mtvec,t0
  ce:	4505                	li	a0,1
  d0:	057e                	slli	a0,a0,0x1f
  d2:	00054a63          	bltz	a0,e6 <reset_vector+0xae>
  d6:	0ff0000f          	fence
  da:	4185                	li	gp,1
  dc:	05d00893          	li	a7,93
  e0:	4501                	li	a0,0
  e2:	00000073          	ecall
  e6:	00000293          	li	t0,0
  ea:	00028963          	beqz	t0,fc <reset_vector+0xc4>
  ee:	10529073          	csrw	stvec,t0
  f2:	62ad                	lui	t0,0xb
  f4:	10928293          	addi	t0,t0,265 # b109 <pass+0xa339>
  f8:	30229073          	csrw	medeleg,t0
  fc:	30005073          	csrwi	mstatus,0
 100:	00000297          	auipc	t0,0x0
 104:	01428293          	addi	t0,t0,20 # 114 <test_2>
 108:	34129073          	csrw	mepc,t0
 10c:	f1402573          	csrr	a0,mhartid
 110:	30200073          	mret

00000114 <test_2>:
 114:	4189                	li	gp,2
 116:	01000117          	auipc	sp,0x1000
 11a:	eea10113          	addi	sp,sp,-278 # 1000000 <__DATA_BEGIN__>
 11e:	fdd00093          	li	ra,-35
 122:	00110023          	sb	ra,0(sp)
 126:	00010703          	lb	a4,0(sp)
 12a:	00e10023          	sb	a4,0(sp)
 12e:	00010103          	lb	sp,0(sp)
 132:	fdd00393          	li	t2,-35
 136:	487111e3          	bne	sp,t2,db8 <fail>
 13a:	01000117          	auipc	sp,0x1000
 13e:	ec610113          	addi	sp,sp,-314 # 1000000 <__DATA_BEGIN__>
 142:	c40a                	sw	sp,8(sp)
 144:	4222                	lw	tp,8(sp)
 146:	00120023          	sb	ra,0(tp) # 0 <_start>
 14a:	462217e3          	bne	tp,sp,db8 <fail>
 14e:	00020703          	lb	a4,0(tp) # 0 <_start>
 152:	467713e3          	bne	a4,t2,db8 <fail>

00000156 <test_3>:
 156:	418d                	li	gp,3
 158:	01000117          	auipc	sp,0x1000
 15c:	ea810113          	addi	sp,sp,-344 # 1000000 <__DATA_BEGIN__>
 160:	fcd00093          	li	ra,-51
 164:	001100a3          	sb	ra,1(sp)
 168:	00110703          	lb	a4,1(sp)
 16c:	00e100a3          	sb	a4,1(sp)
 170:	00110103          	lb	sp,1(sp)
 174:	fcd00393          	li	t2,-51
 178:	447110e3          	bne	sp,t2,db8 <fail>
 17c:	01000117          	auipc	sp,0x1000
 180:	e8410113          	addi	sp,sp,-380 # 1000000 <__DATA_BEGIN__>
 184:	c40a                	sw	sp,8(sp)
 186:	4222                	lw	tp,8(sp)
 188:	001200a3          	sb	ra,1(tp) # 1 <_start+0x1>
 18c:	422216e3          	bne	tp,sp,db8 <fail>
 190:	00120703          	lb	a4,1(tp) # 1 <_start+0x1>
 194:	427712e3          	bne	a4,t2,db8 <fail>

00000198 <test_4>:
 198:	4191                	li	gp,4
 19a:	01000117          	auipc	sp,0x1000
 19e:	e6610113          	addi	sp,sp,-410 # 1000000 <__DATA_BEGIN__>
 1a2:	fcc00093          	li	ra,-52
 1a6:	00110123          	sb	ra,2(sp)
 1aa:	00210703          	lb	a4,2(sp)
 1ae:	00e10123          	sb	a4,2(sp)
 1b2:	00210103          	lb	sp,2(sp)
 1b6:	fcc00393          	li	t2,-52
 1ba:	3e711fe3          	bne	sp,t2,db8 <fail>
 1be:	01000117          	auipc	sp,0x1000
 1c2:	e4210113          	addi	sp,sp,-446 # 1000000 <__DATA_BEGIN__>
 1c6:	c40a                	sw	sp,8(sp)
 1c8:	4222                	lw	tp,8(sp)
 1ca:	00120123          	sb	ra,2(tp) # 2 <_start+0x2>
 1ce:	3e2215e3          	bne	tp,sp,db8 <fail>
 1d2:	00220703          	lb	a4,2(tp) # 2 <_start+0x2>
 1d6:	3e7711e3          	bne	a4,t2,db8 <fail>

000001da <test_5>:
 1da:	4195                	li	gp,5
 1dc:	01000117          	auipc	sp,0x1000
 1e0:	e2410113          	addi	sp,sp,-476 # 1000000 <__DATA_BEGIN__>
 1e4:	fbc00093          	li	ra,-68
 1e8:	001101a3          	sb	ra,3(sp)
 1ec:	00310703          	lb	a4,3(sp)
 1f0:	00e101a3          	sb	a4,3(sp)
 1f4:	00310103          	lb	sp,3(sp)
 1f8:	fbc00393          	li	t2,-68
 1fc:	3a711ee3          	bne	sp,t2,db8 <fail>
 200:	01000117          	auipc	sp,0x1000
 204:	e0010113          	addi	sp,sp,-512 # 1000000 <__DATA_BEGIN__>
 208:	c40a                	sw	sp,8(sp)
 20a:	4222                	lw	tp,8(sp)
 20c:	001201a3          	sb	ra,3(tp) # 3 <_start+0x3>
 210:	3a2214e3          	bne	tp,sp,db8 <fail>
 214:	00320703          	lb	a4,3(tp) # 3 <_start+0x3>
 218:	3a7710e3          	bne	a4,t2,db8 <fail>

0000021c <test_6>:
 21c:	4199                	li	gp,6
 21e:	01000117          	auipc	sp,0x1000
 222:	de210113          	addi	sp,sp,-542 # 1000000 <__DATA_BEGIN__>
 226:	fbb00093          	li	ra,-69
 22a:	00110223          	sb	ra,4(sp)
 22e:	00410703          	lb	a4,4(sp)
 232:	00e10223          	sb	a4,4(sp)
 236:	00410103          	lb	sp,4(sp)
 23a:	fbb00393          	li	t2,-69
 23e:	36711de3          	bne	sp,t2,db8 <fail>
 242:	01000117          	auipc	sp,0x1000
 246:	dbe10113          	addi	sp,sp,-578 # 1000000 <__DATA_BEGIN__>
 24a:	c40a                	sw	sp,8(sp)
 24c:	4222                	lw	tp,8(sp)
 24e:	00120223          	sb	ra,4(tp) # 4 <trap_vector>
 252:	362213e3          	bne	tp,sp,db8 <fail>
 256:	00420703          	lb	a4,4(tp) # 4 <trap_vector>
 25a:	34771fe3          	bne	a4,t2,db8 <fail>

0000025e <test_7>:
 25e:	419d                	li	gp,7
 260:	01000117          	auipc	sp,0x1000
 264:	da010113          	addi	sp,sp,-608 # 1000000 <__DATA_BEGIN__>
 268:	fab00093          	li	ra,-85
 26c:	001102a3          	sb	ra,5(sp)
 270:	00510703          	lb	a4,5(sp)
 274:	00e102a3          	sb	a4,5(sp)
 278:	00510103          	lb	sp,5(sp)
 27c:	fab00393          	li	t2,-85
 280:	32711ce3          	bne	sp,t2,db8 <fail>
 284:	01000117          	auipc	sp,0x1000
 288:	d7c10113          	addi	sp,sp,-644 # 1000000 <__DATA_BEGIN__>
 28c:	c40a                	sw	sp,8(sp)
 28e:	4222                	lw	tp,8(sp)
 290:	001202a3          	sb	ra,5(tp) # 5 <trap_vector+0x1>
 294:	322212e3          	bne	tp,sp,db8 <fail>
 298:	00520703          	lb	a4,5(tp) # 5 <trap_vector+0x1>
 29c:	30771ee3          	bne	a4,t2,db8 <fail>

000002a0 <test_8>:
 2a0:	41a1                	li	gp,8
 2a2:	01000117          	auipc	sp,0x1000
 2a6:	d5e10113          	addi	sp,sp,-674 # 1000000 <__DATA_BEGIN__>
 2aa:	03300093          	li	ra,51
 2ae:	00110023          	sb	ra,0(sp)
 2b2:	00010703          	lb	a4,0(sp)
 2b6:	00e10023          	sb	a4,0(sp)
 2ba:	00010103          	lb	sp,0(sp)
 2be:	03300393          	li	t2,51
 2c2:	2e711be3          	bne	sp,t2,db8 <fail>
 2c6:	01000117          	auipc	sp,0x1000
 2ca:	d3a10113          	addi	sp,sp,-710 # 1000000 <__DATA_BEGIN__>
 2ce:	c40a                	sw	sp,8(sp)
 2d0:	4222                	lw	tp,8(sp)
 2d2:	00120023          	sb	ra,0(tp) # 0 <_start>
 2d6:	2e2211e3          	bne	tp,sp,db8 <fail>
 2da:	00020703          	lb	a4,0(tp) # 0 <_start>
 2de:	2c771de3          	bne	a4,t2,db8 <fail>

000002e2 <test_9>:
 2e2:	41a5                	li	gp,9
 2e4:	01000117          	auipc	sp,0x1000
 2e8:	d1c10113          	addi	sp,sp,-740 # 1000000 <__DATA_BEGIN__>
 2ec:	02300093          	li	ra,35
 2f0:	001100a3          	sb	ra,1(sp)
 2f4:	00110703          	lb	a4,1(sp)
 2f8:	00e100a3          	sb	a4,1(sp)
 2fc:	00110103          	lb	sp,1(sp)
 300:	02300393          	li	t2,35
 304:	2a711ae3          	bne	sp,t2,db8 <fail>
 308:	01000117          	auipc	sp,0x1000
 30c:	cf810113          	addi	sp,sp,-776 # 1000000 <__DATA_BEGIN__>
 310:	c40a                	sw	sp,8(sp)
 312:	4222                	lw	tp,8(sp)
 314:	001200a3          	sb	ra,1(tp) # 1 <_start+0x1>
 318:	2a2210e3          	bne	tp,sp,db8 <fail>
 31c:	00120703          	lb	a4,1(tp) # 1 <_start+0x1>
 320:	28771ce3          	bne	a4,t2,db8 <fail>

00000324 <test_10>:
 324:	41a9                	li	gp,10
 326:	01000117          	auipc	sp,0x1000
 32a:	cda10113          	addi	sp,sp,-806 # 1000000 <__DATA_BEGIN__>
 32e:	02200093          	li	ra,34
 332:	00110123          	sb	ra,2(sp)
 336:	00210703          	lb	a4,2(sp)
 33a:	00e10123          	sb	a4,2(sp)
 33e:	00210103          	lb	sp,2(sp)
 342:	02200393          	li	t2,34
 346:	267119e3          	bne	sp,t2,db8 <fail>
 34a:	01000117          	auipc	sp,0x1000
 34e:	cb610113          	addi	sp,sp,-842 # 1000000 <__DATA_BEGIN__>
 352:	c40a                	sw	sp,8(sp)
 354:	4222                	lw	tp,8(sp)
 356:	00120123          	sb	ra,2(tp) # 2 <_start+0x2>
 35a:	24221fe3          	bne	tp,sp,db8 <fail>
 35e:	00220703          	lb	a4,2(tp) # 2 <_start+0x2>
 362:	24771be3          	bne	a4,t2,db8 <fail>

00000366 <test_11>:
 366:	41ad                	li	gp,11
 368:	01000117          	auipc	sp,0x1000
 36c:	c9810113          	addi	sp,sp,-872 # 1000000 <__DATA_BEGIN__>
 370:	40c9                	li	ra,18
 372:	001101a3          	sb	ra,3(sp)
 376:	00310703          	lb	a4,3(sp)
 37a:	00e101a3          	sb	a4,3(sp)
 37e:	00310103          	lb	sp,3(sp)
 382:	43c9                	li	t2,18
 384:	22711ae3          	bne	sp,t2,db8 <fail>
 388:	01000117          	auipc	sp,0x1000
 38c:	c7810113          	addi	sp,sp,-904 # 1000000 <__DATA_BEGIN__>
 390:	c40a                	sw	sp,8(sp)
 392:	4222                	lw	tp,8(sp)
 394:	001201a3          	sb	ra,3(tp) # 3 <_start+0x3>
 398:	222210e3          	bne	tp,sp,db8 <fail>
 39c:	00320703          	lb	a4,3(tp) # 3 <_start+0x3>
 3a0:	20771ce3          	bne	a4,t2,db8 <fail>

000003a4 <test_12>:
 3a4:	41b1                	li	gp,12
 3a6:	01000117          	auipc	sp,0x1000
 3aa:	c5a10113          	addi	sp,sp,-934 # 1000000 <__DATA_BEGIN__>
 3ae:	40c5                	li	ra,17
 3b0:	00110223          	sb	ra,4(sp)
 3b4:	00410703          	lb	a4,4(sp)
 3b8:	00e10223          	sb	a4,4(sp)
 3bc:	00410103          	lb	sp,4(sp)
 3c0:	43c5                	li	t2,17
 3c2:	1e711be3          	bne	sp,t2,db8 <fail>
 3c6:	01000117          	auipc	sp,0x1000
 3ca:	c3a10113          	addi	sp,sp,-966 # 1000000 <__DATA_BEGIN__>
 3ce:	c40a                	sw	sp,8(sp)
 3d0:	4222                	lw	tp,8(sp)
 3d2:	00120223          	sb	ra,4(tp) # 4 <trap_vector>
 3d6:	1e2211e3          	bne	tp,sp,db8 <fail>
 3da:	00420703          	lb	a4,4(tp) # 4 <trap_vector>
 3de:	1c771de3          	bne	a4,t2,db8 <fail>

000003e2 <test_13>:
 3e2:	41b5                	li	gp,13
 3e4:	01000117          	auipc	sp,0x1000
 3e8:	c1c10113          	addi	sp,sp,-996 # 1000000 <__DATA_BEGIN__>
 3ec:	4085                	li	ra,1
 3ee:	001102a3          	sb	ra,5(sp)
 3f2:	00510703          	lb	a4,5(sp)
 3f6:	00e102a3          	sb	a4,5(sp)
 3fa:	00510103          	lb	sp,5(sp)
 3fe:	4385                	li	t2,1
 400:	1a711ce3          	bne	sp,t2,db8 <fail>
 404:	01000117          	auipc	sp,0x1000
 408:	bfc10113          	addi	sp,sp,-1028 # 1000000 <__DATA_BEGIN__>
 40c:	c40a                	sw	sp,8(sp)
 40e:	4222                	lw	tp,8(sp)
 410:	001202a3          	sb	ra,5(tp) # 5 <trap_vector+0x1>
 414:	1a2212e3          	bne	tp,sp,db8 <fail>
 418:	00520703          	lb	a4,5(tp) # 5 <trap_vector+0x1>
 41c:	18771ee3          	bne	a4,t2,db8 <fail>

00000420 <test_14>:
 420:	41b9                	li	gp,14
 422:	01000117          	auipc	sp,0x1000
 426:	bde10113          	addi	sp,sp,-1058 # 1000000 <__DATA_BEGIN__>
 42a:	03300093          	li	ra,51
 42e:	00110023          	sb	ra,0(sp)
 432:	00014703          	lbu	a4,0(sp)
 436:	00e10023          	sb	a4,0(sp)
 43a:	00014103          	lbu	sp,0(sp)
 43e:	03300393          	li	t2,51
 442:	16711be3          	bne	sp,t2,db8 <fail>
 446:	01000117          	auipc	sp,0x1000
 44a:	bba10113          	addi	sp,sp,-1094 # 1000000 <__DATA_BEGIN__>
 44e:	c40a                	sw	sp,8(sp)
 450:	4222                	lw	tp,8(sp)
 452:	00120023          	sb	ra,0(tp) # 0 <_start>
 456:	162211e3          	bne	tp,sp,db8 <fail>
 45a:	00024703          	lbu	a4,0(tp) # 0 <_start>
 45e:	14771de3          	bne	a4,t2,db8 <fail>

00000462 <test_15>:
 462:	41bd                	li	gp,15
 464:	01000117          	auipc	sp,0x1000
 468:	b9c10113          	addi	sp,sp,-1124 # 1000000 <__DATA_BEGIN__>
 46c:	02300093          	li	ra,35
 470:	001100a3          	sb	ra,1(sp)
 474:	00114703          	lbu	a4,1(sp)
 478:	00e100a3          	sb	a4,1(sp)
 47c:	00114103          	lbu	sp,1(sp)
 480:	02300393          	li	t2,35
 484:	12711ae3          	bne	sp,t2,db8 <fail>
 488:	01000117          	auipc	sp,0x1000
 48c:	b7810113          	addi	sp,sp,-1160 # 1000000 <__DATA_BEGIN__>
 490:	c40a                	sw	sp,8(sp)
 492:	4222                	lw	tp,8(sp)
 494:	001200a3          	sb	ra,1(tp) # 1 <_start+0x1>
 498:	122210e3          	bne	tp,sp,db8 <fail>
 49c:	00124703          	lbu	a4,1(tp) # 1 <_start+0x1>
 4a0:	10771ce3          	bne	a4,t2,db8 <fail>

000004a4 <test_16>:
 4a4:	41c1                	li	gp,16
 4a6:	01000117          	auipc	sp,0x1000
 4aa:	b5a10113          	addi	sp,sp,-1190 # 1000000 <__DATA_BEGIN__>
 4ae:	02200093          	li	ra,34
 4b2:	00110123          	sb	ra,2(sp)
 4b6:	00214703          	lbu	a4,2(sp)
 4ba:	00e10123          	sb	a4,2(sp)
 4be:	00214103          	lbu	sp,2(sp)
 4c2:	02200393          	li	t2,34
 4c6:	0e7119e3          	bne	sp,t2,db8 <fail>
 4ca:	01000117          	auipc	sp,0x1000
 4ce:	b3610113          	addi	sp,sp,-1226 # 1000000 <__DATA_BEGIN__>
 4d2:	c40a                	sw	sp,8(sp)
 4d4:	4222                	lw	tp,8(sp)
 4d6:	00120123          	sb	ra,2(tp) # 2 <_start+0x2>
 4da:	0c221fe3          	bne	tp,sp,db8 <fail>
 4de:	00224703          	lbu	a4,2(tp) # 2 <_start+0x2>
 4e2:	0c771be3          	bne	a4,t2,db8 <fail>

000004e6 <test_17>:
 4e6:	41c5                	li	gp,17
 4e8:	01000117          	auipc	sp,0x1000
 4ec:	b1810113          	addi	sp,sp,-1256 # 1000000 <__DATA_BEGIN__>
 4f0:	40c9                	li	ra,18
 4f2:	001101a3          	sb	ra,3(sp)
 4f6:	00314703          	lbu	a4,3(sp)
 4fa:	00e101a3          	sb	a4,3(sp)
 4fe:	00314103          	lbu	sp,3(sp)
 502:	43c9                	li	t2,18
 504:	0a711ae3          	bne	sp,t2,db8 <fail>
 508:	01000117          	auipc	sp,0x1000
 50c:	af810113          	addi	sp,sp,-1288 # 1000000 <__DATA_BEGIN__>
 510:	c40a                	sw	sp,8(sp)
 512:	4222                	lw	tp,8(sp)
 514:	001201a3          	sb	ra,3(tp) # 3 <_start+0x3>
 518:	0a2210e3          	bne	tp,sp,db8 <fail>
 51c:	00324703          	lbu	a4,3(tp) # 3 <_start+0x3>
 520:	08771ce3          	bne	a4,t2,db8 <fail>

00000524 <test_18>:
 524:	41c9                	li	gp,18
 526:	01000117          	auipc	sp,0x1000
 52a:	ada10113          	addi	sp,sp,-1318 # 1000000 <__DATA_BEGIN__>
 52e:	40c5                	li	ra,17
 530:	00110223          	sb	ra,4(sp)
 534:	00414703          	lbu	a4,4(sp)
 538:	00e10223          	sb	a4,4(sp)
 53c:	00414103          	lbu	sp,4(sp)
 540:	43c5                	li	t2,17
 542:	06711be3          	bne	sp,t2,db8 <fail>
 546:	01000117          	auipc	sp,0x1000
 54a:	aba10113          	addi	sp,sp,-1350 # 1000000 <__DATA_BEGIN__>
 54e:	c40a                	sw	sp,8(sp)
 550:	4222                	lw	tp,8(sp)
 552:	00120223          	sb	ra,4(tp) # 4 <trap_vector>
 556:	062211e3          	bne	tp,sp,db8 <fail>
 55a:	00424703          	lbu	a4,4(tp) # 4 <trap_vector>
 55e:	04771de3          	bne	a4,t2,db8 <fail>

00000562 <test_19>:
 562:	41cd                	li	gp,19
 564:	01000117          	auipc	sp,0x1000
 568:	a9c10113          	addi	sp,sp,-1380 # 1000000 <__DATA_BEGIN__>
 56c:	4085                	li	ra,1
 56e:	001102a3          	sb	ra,5(sp)
 572:	00514703          	lbu	a4,5(sp)
 576:	00e102a3          	sb	a4,5(sp)
 57a:	00514103          	lbu	sp,5(sp)
 57e:	4385                	li	t2,1
 580:	02711ce3          	bne	sp,t2,db8 <fail>
 584:	01000117          	auipc	sp,0x1000
 588:	a7c10113          	addi	sp,sp,-1412 # 1000000 <__DATA_BEGIN__>
 58c:	c40a                	sw	sp,8(sp)
 58e:	4222                	lw	tp,8(sp)
 590:	001202a3          	sb	ra,5(tp) # 5 <trap_vector+0x1>
 594:	022212e3          	bne	tp,sp,db8 <fail>
 598:	00524703          	lbu	a4,5(tp) # 5 <trap_vector+0x1>
 59c:	00771ee3          	bne	a4,t2,db8 <fail>

000005a0 <test_20>:
 5a0:	41d1                	li	gp,20
 5a2:	01000117          	auipc	sp,0x1000
 5a6:	a5e10113          	addi	sp,sp,-1442 # 1000000 <__DATA_BEGIN__>
 5aa:	aabbd0b7          	lui	ra,0xaabbd
 5ae:	cdd08093          	addi	ra,ra,-803 # aabbccdd <__global_pointer$+0xa9bbc4dd>
 5b2:	c006                	sw	ra,0(sp)
 5b4:	4702                	lw	a4,0(sp)
 5b6:	c03a                	sw	a4,0(sp)
 5b8:	4102                	lw	sp,0(sp)
 5ba:	aabbd3b7          	lui	t2,0xaabbd
 5be:	cdd38393          	addi	t2,t2,-803 # aabbccdd <__global_pointer$+0xa9bbc4dd>
 5c2:	7e711b63          	bne	sp,t2,db8 <fail>
 5c6:	01000117          	auipc	sp,0x1000
 5ca:	a3a10113          	addi	sp,sp,-1478 # 1000000 <__DATA_BEGIN__>
 5ce:	c40a                	sw	sp,8(sp)
 5d0:	4222                	lw	tp,8(sp)
 5d2:	00122023          	sw	ra,0(tp) # 0 <_start>
 5d6:	7e221163          	bne	tp,sp,db8 <fail>
 5da:	00022703          	lw	a4,0(tp) # 0 <_start>
 5de:	7c771d63          	bne	a4,t2,db8 <fail>

000005e2 <test_21>:
 5e2:	41d5                	li	gp,21
 5e4:	01000117          	auipc	sp,0x1000
 5e8:	a1c10113          	addi	sp,sp,-1508 # 1000000 <__DATA_BEGIN__>
 5ec:	daabc0b7          	lui	ra,0xdaabc
 5f0:	ccd08093          	addi	ra,ra,-819 # daabbccd <__global_pointer$+0xd9abb4cd>
 5f4:	c206                	sw	ra,4(sp)
 5f6:	4712                	lw	a4,4(sp)
 5f8:	c23a                	sw	a4,4(sp)
 5fa:	4112                	lw	sp,4(sp)
 5fc:	daabc3b7          	lui	t2,0xdaabc
 600:	ccd38393          	addi	t2,t2,-819 # daabbccd <__global_pointer$+0xd9abb4cd>
 604:	7a711a63          	bne	sp,t2,db8 <fail>
 608:	01000117          	auipc	sp,0x1000
 60c:	9f810113          	addi	sp,sp,-1544 # 1000000 <__DATA_BEGIN__>
 610:	c40a                	sw	sp,8(sp)
 612:	4222                	lw	tp,8(sp)
 614:	00122223          	sw	ra,4(tp) # 4 <trap_vector>
 618:	7a221063          	bne	tp,sp,db8 <fail>
 61c:	00422703          	lw	a4,4(tp) # 4 <trap_vector>
 620:	78771c63          	bne	a4,t2,db8 <fail>

00000624 <test_22>:
 624:	41d9                	li	gp,22
 626:	01000117          	auipc	sp,0x1000
 62a:	9da10113          	addi	sp,sp,-1574 # 1000000 <__DATA_BEGIN__>
 62e:	ddaac0b7          	lui	ra,0xddaac
 632:	bcc08093          	addi	ra,ra,-1076 # ddaabbcc <__global_pointer$+0xdcaab3cc>
 636:	c406                	sw	ra,8(sp)
 638:	4722                	lw	a4,8(sp)
 63a:	c43a                	sw	a4,8(sp)
 63c:	4122                	lw	sp,8(sp)
 63e:	ddaac3b7          	lui	t2,0xddaac
 642:	bcc38393          	addi	t2,t2,-1076 # ddaabbcc <__global_pointer$+0xdcaab3cc>
 646:	76711963          	bne	sp,t2,db8 <fail>
 64a:	01000117          	auipc	sp,0x1000
 64e:	9b610113          	addi	sp,sp,-1610 # 1000000 <__DATA_BEGIN__>
 652:	c40a                	sw	sp,8(sp)
 654:	4222                	lw	tp,8(sp)
 656:	00122423          	sw	ra,8(tp) # 8 <trap_vector+0x4>
 65a:	74221f63          	bne	tp,sp,db8 <fail>
 65e:	00822703          	lw	a4,8(tp) # 8 <trap_vector+0x4>
 662:	74771b63          	bne	a4,t2,db8 <fail>

00000666 <test_23>:
 666:	41dd                	li	gp,23
 668:	01000117          	auipc	sp,0x1000
 66c:	99810113          	addi	sp,sp,-1640 # 1000000 <__DATA_BEGIN__>
 670:	cddab0b7          	lui	ra,0xcddab
 674:	bbc08093          	addi	ra,ra,-1092 # cddaabbc <__global_pointer$+0xccdaa3bc>
 678:	c606                	sw	ra,12(sp)
 67a:	4732                	lw	a4,12(sp)
 67c:	c63a                	sw	a4,12(sp)
 67e:	4132                	lw	sp,12(sp)
 680:	cddab3b7          	lui	t2,0xcddab
 684:	bbc38393          	addi	t2,t2,-1092 # cddaabbc <__global_pointer$+0xccdaa3bc>
 688:	72711863          	bne	sp,t2,db8 <fail>
 68c:	01000117          	auipc	sp,0x1000
 690:	97410113          	addi	sp,sp,-1676 # 1000000 <__DATA_BEGIN__>
 694:	c40a                	sw	sp,8(sp)
 696:	4222                	lw	tp,8(sp)
 698:	00122623          	sw	ra,12(tp) # c <trap_vector+0x8>
 69c:	70221e63          	bne	tp,sp,db8 <fail>
 6a0:	00c22703          	lw	a4,12(tp) # c <trap_vector+0x8>
 6a4:	70771a63          	bne	a4,t2,db8 <fail>

000006a8 <test_24>:
 6a8:	41e1                	li	gp,24
 6aa:	01000117          	auipc	sp,0x1000
 6ae:	95610113          	addi	sp,sp,-1706 # 1000000 <__DATA_BEGIN__>
 6b2:	ccddb0b7          	lui	ra,0xccddb
 6b6:	abb08093          	addi	ra,ra,-1349 # ccddaabb <__global_pointer$+0xcbdda2bb>
 6ba:	c806                	sw	ra,16(sp)
 6bc:	4742                	lw	a4,16(sp)
 6be:	c83a                	sw	a4,16(sp)
 6c0:	4142                	lw	sp,16(sp)
 6c2:	ccddb3b7          	lui	t2,0xccddb
 6c6:	abb38393          	addi	t2,t2,-1349 # ccddaabb <__global_pointer$+0xcbdda2bb>
 6ca:	6e711763          	bne	sp,t2,db8 <fail>
 6ce:	01000117          	auipc	sp,0x1000
 6d2:	93210113          	addi	sp,sp,-1742 # 1000000 <__DATA_BEGIN__>
 6d6:	c40a                	sw	sp,8(sp)
 6d8:	4222                	lw	tp,8(sp)
 6da:	00122823          	sw	ra,16(tp) # 10 <trap_vector+0xc>
 6de:	6c221d63          	bne	tp,sp,db8 <fail>
 6e2:	01022703          	lw	a4,16(tp) # 10 <trap_vector+0xc>
 6e6:	6c771963          	bne	a4,t2,db8 <fail>

000006ea <test_25>:
 6ea:	41e5                	li	gp,25
 6ec:	01000117          	auipc	sp,0x1000
 6f0:	91410113          	addi	sp,sp,-1772 # 1000000 <__DATA_BEGIN__>
 6f4:	bccde0b7          	lui	ra,0xbccde
 6f8:	aab08093          	addi	ra,ra,-1365 # bccddaab <__global_pointer$+0xbbcdd2ab>
 6fc:	ca06                	sw	ra,20(sp)
 6fe:	4752                	lw	a4,20(sp)
 700:	ca3a                	sw	a4,20(sp)
 702:	4152                	lw	sp,20(sp)
 704:	bccde3b7          	lui	t2,0xbccde
 708:	aab38393          	addi	t2,t2,-1365 # bccddaab <__global_pointer$+0xbbcdd2ab>
 70c:	6a711663          	bne	sp,t2,db8 <fail>
 710:	01000117          	auipc	sp,0x1000
 714:	8f010113          	addi	sp,sp,-1808 # 1000000 <__DATA_BEGIN__>
 718:	c40a                	sw	sp,8(sp)
 71a:	4222                	lw	tp,8(sp)
 71c:	00122a23          	sw	ra,20(tp) # 14 <trap_vector+0x10>
 720:	68221c63          	bne	tp,sp,db8 <fail>
 724:	01422703          	lw	a4,20(tp) # 14 <trap_vector+0x10>
 728:	68771863          	bne	a4,t2,db8 <fail>

0000072c <test_26>:
 72c:	41e9                	li	gp,26
 72e:	01000117          	auipc	sp,0x1000
 732:	8d210113          	addi	sp,sp,-1838 # 1000000 <__DATA_BEGIN__>
 736:	001120b7          	lui	ra,0x112
 73a:	23308093          	addi	ra,ra,563 # 112233 <pass+0x111463>
 73e:	c006                	sw	ra,0(sp)
 740:	4702                	lw	a4,0(sp)
 742:	c03a                	sw	a4,0(sp)
 744:	4102                	lw	sp,0(sp)
 746:	001123b7          	lui	t2,0x112
 74a:	23338393          	addi	t2,t2,563 # 112233 <pass+0x111463>
 74e:	66711563          	bne	sp,t2,db8 <fail>
 752:	01000117          	auipc	sp,0x1000
 756:	8ae10113          	addi	sp,sp,-1874 # 1000000 <__DATA_BEGIN__>
 75a:	c40a                	sw	sp,8(sp)
 75c:	4222                	lw	tp,8(sp)
 75e:	00122023          	sw	ra,0(tp) # 0 <_start>
 762:	64221b63          	bne	tp,sp,db8 <fail>
 766:	00022703          	lw	a4,0(tp) # 0 <_start>
 76a:	64771763          	bne	a4,t2,db8 <fail>

0000076e <test_27>:
 76e:	41ed                	li	gp,27
 770:	01000117          	auipc	sp,0x1000
 774:	89010113          	addi	sp,sp,-1904 # 1000000 <__DATA_BEGIN__>
 778:	300110b7          	lui	ra,0x30011
 77c:	22308093          	addi	ra,ra,547 # 30011223 <__global_pointer$+0x2f010a23>
 780:	c206                	sw	ra,4(sp)
 782:	4712                	lw	a4,4(sp)
 784:	c23a                	sw	a4,4(sp)
 786:	4112                	lw	sp,4(sp)
 788:	300113b7          	lui	t2,0x30011
 78c:	22338393          	addi	t2,t2,547 # 30011223 <__global_pointer$+0x2f010a23>
 790:	62711463          	bne	sp,t2,db8 <fail>
 794:	01000117          	auipc	sp,0x1000
 798:	86c10113          	addi	sp,sp,-1940 # 1000000 <__DATA_BEGIN__>
 79c:	c40a                	sw	sp,8(sp)
 79e:	4222                	lw	tp,8(sp)
 7a0:	00122223          	sw	ra,4(tp) # 4 <trap_vector>
 7a4:	60221a63          	bne	tp,sp,db8 <fail>
 7a8:	00422703          	lw	a4,4(tp) # 4 <trap_vector>
 7ac:	60771663          	bne	a4,t2,db8 <fail>

000007b0 <test_28>:
 7b0:	41f1                	li	gp,28
 7b2:	01000117          	auipc	sp,0x1000
 7b6:	84e10113          	addi	sp,sp,-1970 # 1000000 <__DATA_BEGIN__>
 7ba:	330010b7          	lui	ra,0x33001
 7be:	12208093          	addi	ra,ra,290 # 33001122 <__global_pointer$+0x32000922>
 7c2:	c406                	sw	ra,8(sp)
 7c4:	4722                	lw	a4,8(sp)
 7c6:	c43a                	sw	a4,8(sp)
 7c8:	4122                	lw	sp,8(sp)
 7ca:	330013b7          	lui	t2,0x33001
 7ce:	12238393          	addi	t2,t2,290 # 33001122 <__global_pointer$+0x32000922>
 7d2:	5e711363          	bne	sp,t2,db8 <fail>
 7d6:	01000117          	auipc	sp,0x1000
 7da:	82a10113          	addi	sp,sp,-2006 # 1000000 <__DATA_BEGIN__>
 7de:	c40a                	sw	sp,8(sp)
 7e0:	4222                	lw	tp,8(sp)
 7e2:	00122423          	sw	ra,8(tp) # 8 <trap_vector+0x4>
 7e6:	5c221963          	bne	tp,sp,db8 <fail>
 7ea:	00822703          	lw	a4,8(tp) # 8 <trap_vector+0x4>
 7ee:	5c771563          	bne	a4,t2,db8 <fail>

000007f2 <test_29>:
 7f2:	41f5                	li	gp,29
 7f4:	01000117          	auipc	sp,0x1000
 7f8:	80c10113          	addi	sp,sp,-2036 # 1000000 <__DATA_BEGIN__>
 7fc:	233000b7          	lui	ra,0x23300
 800:	11208093          	addi	ra,ra,274 # 23300112 <__global_pointer$+0x222ff912>
 804:	c606                	sw	ra,12(sp)
 806:	4732                	lw	a4,12(sp)
 808:	c63a                	sw	a4,12(sp)
 80a:	4132                	lw	sp,12(sp)
 80c:	233003b7          	lui	t2,0x23300
 810:	11238393          	addi	t2,t2,274 # 23300112 <__global_pointer$+0x222ff912>
 814:	5a711263          	bne	sp,t2,db8 <fail>
 818:	00fff117          	auipc	sp,0xfff
 81c:	7e810113          	addi	sp,sp,2024 # 1000000 <__DATA_BEGIN__>
 820:	c40a                	sw	sp,8(sp)
 822:	4222                	lw	tp,8(sp)
 824:	00122623          	sw	ra,12(tp) # c <trap_vector+0x8>
 828:	58221863          	bne	tp,sp,db8 <fail>
 82c:	00c22703          	lw	a4,12(tp) # c <trap_vector+0x8>
 830:	58771463          	bne	a4,t2,db8 <fail>

00000834 <test_30>:
 834:	41f9                	li	gp,30
 836:	00fff117          	auipc	sp,0xfff
 83a:	7ca10113          	addi	sp,sp,1994 # 1000000 <__DATA_BEGIN__>
 83e:	223300b7          	lui	ra,0x22330
 842:	00c5                	addi	ra,ra,17 # 22330011 <__global_pointer$+0x2132f811>
 844:	c806                	sw	ra,16(sp)
 846:	4742                	lw	a4,16(sp)
 848:	c83a                	sw	a4,16(sp)
 84a:	4142                	lw	sp,16(sp)
 84c:	223303b7          	lui	t2,0x22330
 850:	03c5                	addi	t2,t2,17 # 22330011 <__global_pointer$+0x2132f811>
 852:	56711363          	bne	sp,t2,db8 <fail>
 856:	00fff117          	auipc	sp,0xfff
 85a:	7aa10113          	addi	sp,sp,1962 # 1000000 <__DATA_BEGIN__>
 85e:	c40a                	sw	sp,8(sp)
 860:	4222                	lw	tp,8(sp)
 862:	00122823          	sw	ra,16(tp) # 10 <trap_vector+0xc>
 866:	54221963          	bne	tp,sp,db8 <fail>
 86a:	01022703          	lw	a4,16(tp) # 10 <trap_vector+0xc>
 86e:	54771563          	bne	a4,t2,db8 <fail>

00000872 <test_31>:
 872:	41fd                	li	gp,31
 874:	00fff117          	auipc	sp,0xfff
 878:	78c10113          	addi	sp,sp,1932 # 1000000 <__DATA_BEGIN__>
 87c:	122330b7          	lui	ra,0x12233
 880:	0085                	addi	ra,ra,1 # 12233001 <__global_pointer$+0x11232801>
 882:	ca06                	sw	ra,20(sp)
 884:	4752                	lw	a4,20(sp)
 886:	ca3a                	sw	a4,20(sp)
 888:	4152                	lw	sp,20(sp)
 88a:	122333b7          	lui	t2,0x12233
 88e:	0385                	addi	t2,t2,1 # 12233001 <__global_pointer$+0x11232801>
 890:	52711463          	bne	sp,t2,db8 <fail>
 894:	00fff117          	auipc	sp,0xfff
 898:	76c10113          	addi	sp,sp,1900 # 1000000 <__DATA_BEGIN__>
 89c:	c40a                	sw	sp,8(sp)
 89e:	4222                	lw	tp,8(sp)
 8a0:	00122a23          	sw	ra,20(tp) # 14 <trap_vector+0x10>
 8a4:	50221a63          	bne	tp,sp,db8 <fail>
 8a8:	01422703          	lw	a4,20(tp) # 14 <trap_vector+0x10>
 8ac:	50771663          	bne	a4,t2,db8 <fail>

000008b0 <test_32>:
 8b0:	02000193          	li	gp,32
 8b4:	00fff117          	auipc	sp,0xfff
 8b8:	74c10113          	addi	sp,sp,1868 # 1000000 <__DATA_BEGIN__>
 8bc:	70f5                	lui	ra,0xffffd
 8be:	cdd08093          	addi	ra,ra,-803 # ffffccdd <__global_pointer$+0xfeffc4dd>
 8c2:	00111023          	sh	ra,0(sp)
 8c6:	00011703          	lh	a4,0(sp)
 8ca:	00e11023          	sh	a4,0(sp)
 8ce:	00011103          	lh	sp,0(sp)
 8d2:	73f5                	lui	t2,0xffffd
 8d4:	cdd38393          	addi	t2,t2,-803 # ffffccdd <__global_pointer$+0xfeffc4dd>
 8d8:	4e711063          	bne	sp,t2,db8 <fail>
 8dc:	00fff117          	auipc	sp,0xfff
 8e0:	72410113          	addi	sp,sp,1828 # 1000000 <__DATA_BEGIN__>
 8e4:	c40a                	sw	sp,8(sp)
 8e6:	4222                	lw	tp,8(sp)
 8e8:	00121023          	sh	ra,0(tp) # 0 <_start>
 8ec:	4c221663          	bne	tp,sp,db8 <fail>
 8f0:	00021703          	lh	a4,0(tp) # 0 <_start>
 8f4:	4c771263          	bne	a4,t2,db8 <fail>

000008f8 <test_33>:
 8f8:	02100193          	li	gp,33
 8fc:	00fff117          	auipc	sp,0xfff
 900:	70410113          	addi	sp,sp,1796 # 1000000 <__DATA_BEGIN__>
 904:	70f1                	lui	ra,0xffffc
 906:	ccd08093          	addi	ra,ra,-819 # ffffbccd <__global_pointer$+0xfeffb4cd>
 90a:	00111123          	sh	ra,2(sp)
 90e:	00211703          	lh	a4,2(sp)
 912:	00e11123          	sh	a4,2(sp)
 916:	00211103          	lh	sp,2(sp)
 91a:	73f1                	lui	t2,0xffffc
 91c:	ccd38393          	addi	t2,t2,-819 # ffffbccd <__global_pointer$+0xfeffb4cd>
 920:	48711c63          	bne	sp,t2,db8 <fail>
 924:	00fff117          	auipc	sp,0xfff
 928:	6dc10113          	addi	sp,sp,1756 # 1000000 <__DATA_BEGIN__>
 92c:	c40a                	sw	sp,8(sp)
 92e:	4222                	lw	tp,8(sp)
 930:	00121123          	sh	ra,2(tp) # 2 <_start+0x2>
 934:	48221263          	bne	tp,sp,db8 <fail>
 938:	00221703          	lh	a4,2(tp) # 2 <_start+0x2>
 93c:	46771e63          	bne	a4,t2,db8 <fail>

00000940 <test_34>:
 940:	02200193          	li	gp,34
 944:	00fff117          	auipc	sp,0xfff
 948:	6bc10113          	addi	sp,sp,1724 # 1000000 <__DATA_BEGIN__>
 94c:	70f1                	lui	ra,0xffffc
 94e:	bcc08093          	addi	ra,ra,-1076 # ffffbbcc <__global_pointer$+0xfeffb3cc>
 952:	00111223          	sh	ra,4(sp)
 956:	00411703          	lh	a4,4(sp)
 95a:	00e11223          	sh	a4,4(sp)
 95e:	00411103          	lh	sp,4(sp)
 962:	73f1                	lui	t2,0xffffc
 964:	bcc38393          	addi	t2,t2,-1076 # ffffbbcc <__global_pointer$+0xfeffb3cc>
 968:	44711863          	bne	sp,t2,db8 <fail>
 96c:	00fff117          	auipc	sp,0xfff
 970:	69410113          	addi	sp,sp,1684 # 1000000 <__DATA_BEGIN__>
 974:	c40a                	sw	sp,8(sp)
 976:	4222                	lw	tp,8(sp)
 978:	00121223          	sh	ra,4(tp) # 4 <trap_vector>
 97c:	42221e63          	bne	tp,sp,db8 <fail>
 980:	00421703          	lh	a4,4(tp) # 4 <trap_vector>
 984:	42771a63          	bne	a4,t2,db8 <fail>

00000988 <test_35>:
 988:	02300193          	li	gp,35
 98c:	00fff117          	auipc	sp,0xfff
 990:	67410113          	addi	sp,sp,1652 # 1000000 <__DATA_BEGIN__>
 994:	70ed                	lui	ra,0xffffb
 996:	bbc08093          	addi	ra,ra,-1092 # ffffabbc <__global_pointer$+0xfeffa3bc>
 99a:	00111323          	sh	ra,6(sp)
 99e:	00611703          	lh	a4,6(sp)
 9a2:	00e11323          	sh	a4,6(sp)
 9a6:	00611103          	lh	sp,6(sp)
 9aa:	73ed                	lui	t2,0xffffb
 9ac:	bbc38393          	addi	t2,t2,-1092 # ffffabbc <__global_pointer$+0xfeffa3bc>
 9b0:	40711463          	bne	sp,t2,db8 <fail>
 9b4:	00fff117          	auipc	sp,0xfff
 9b8:	64c10113          	addi	sp,sp,1612 # 1000000 <__DATA_BEGIN__>
 9bc:	c40a                	sw	sp,8(sp)
 9be:	4222                	lw	tp,8(sp)
 9c0:	00121323          	sh	ra,6(tp) # 6 <trap_vector+0x2>
 9c4:	3e221a63          	bne	tp,sp,db8 <fail>
 9c8:	00621703          	lh	a4,6(tp) # 6 <trap_vector+0x2>
 9cc:	3e771663          	bne	a4,t2,db8 <fail>

000009d0 <test_36>:
 9d0:	02400193          	li	gp,36
 9d4:	00fff117          	auipc	sp,0xfff
 9d8:	62c10113          	addi	sp,sp,1580 # 1000000 <__DATA_BEGIN__>
 9dc:	70ed                	lui	ra,0xffffb
 9de:	abb08093          	addi	ra,ra,-1349 # ffffaabb <__global_pointer$+0xfeffa2bb>
 9e2:	00111423          	sh	ra,8(sp)
 9e6:	00811703          	lh	a4,8(sp)
 9ea:	00e11423          	sh	a4,8(sp)
 9ee:	00811103          	lh	sp,8(sp)
 9f2:	73ed                	lui	t2,0xffffb
 9f4:	abb38393          	addi	t2,t2,-1349 # ffffaabb <__global_pointer$+0xfeffa2bb>
 9f8:	3c711063          	bne	sp,t2,db8 <fail>
 9fc:	00fff117          	auipc	sp,0xfff
 a00:	60410113          	addi	sp,sp,1540 # 1000000 <__DATA_BEGIN__>
 a04:	c40a                	sw	sp,8(sp)
 a06:	4222                	lw	tp,8(sp)
 a08:	00121423          	sh	ra,8(tp) # 8 <trap_vector+0x4>
 a0c:	3a221663          	bne	tp,sp,db8 <fail>
 a10:	00821703          	lh	a4,8(tp) # 8 <trap_vector+0x4>
 a14:	3a771263          	bne	a4,t2,db8 <fail>

00000a18 <test_37>:
 a18:	02500193          	li	gp,37
 a1c:	00fff117          	auipc	sp,0xfff
 a20:	5e410113          	addi	sp,sp,1508 # 1000000 <__DATA_BEGIN__>
 a24:	70f9                	lui	ra,0xffffe
 a26:	aab08093          	addi	ra,ra,-1365 # ffffdaab <__global_pointer$+0xfeffd2ab>
 a2a:	00111523          	sh	ra,10(sp)
 a2e:	00a11703          	lh	a4,10(sp)
 a32:	00e11523          	sh	a4,10(sp)
 a36:	00a11103          	lh	sp,10(sp)
 a3a:	73f9                	lui	t2,0xffffe
 a3c:	aab38393          	addi	t2,t2,-1365 # ffffdaab <__global_pointer$+0xfeffd2ab>
 a40:	36711c63          	bne	sp,t2,db8 <fail>
 a44:	00fff117          	auipc	sp,0xfff
 a48:	5bc10113          	addi	sp,sp,1468 # 1000000 <__DATA_BEGIN__>
 a4c:	c40a                	sw	sp,8(sp)
 a4e:	4222                	lw	tp,8(sp)
 a50:	00121523          	sh	ra,10(tp) # a <trap_vector+0x6>
 a54:	36221263          	bne	tp,sp,db8 <fail>
 a58:	00a21703          	lh	a4,10(tp) # a <trap_vector+0x6>
 a5c:	34771e63          	bne	a4,t2,db8 <fail>

00000a60 <test_38>:
 a60:	02600193          	li	gp,38
 a64:	00fff117          	auipc	sp,0xfff
 a68:	59c10113          	addi	sp,sp,1436 # 1000000 <__DATA_BEGIN__>
 a6c:	6089                	lui	ra,0x2
 a6e:	23308093          	addi	ra,ra,563 # 2233 <pass+0x1463>
 a72:	00111023          	sh	ra,0(sp)
 a76:	00011703          	lh	a4,0(sp)
 a7a:	00e11023          	sh	a4,0(sp)
 a7e:	00011103          	lh	sp,0(sp)
 a82:	6389                	lui	t2,0x2
 a84:	23338393          	addi	t2,t2,563 # 2233 <pass+0x1463>
 a88:	32711863          	bne	sp,t2,db8 <fail>
 a8c:	00fff117          	auipc	sp,0xfff
 a90:	57410113          	addi	sp,sp,1396 # 1000000 <__DATA_BEGIN__>
 a94:	c40a                	sw	sp,8(sp)
 a96:	4222                	lw	tp,8(sp)
 a98:	00121023          	sh	ra,0(tp) # 0 <_start>
 a9c:	30221e63          	bne	tp,sp,db8 <fail>
 aa0:	00021703          	lh	a4,0(tp) # 0 <_start>
 aa4:	30771a63          	bne	a4,t2,db8 <fail>

00000aa8 <test_39>:
 aa8:	02700193          	li	gp,39
 aac:	00fff117          	auipc	sp,0xfff
 ab0:	55410113          	addi	sp,sp,1364 # 1000000 <__DATA_BEGIN__>
 ab4:	6085                	lui	ra,0x1
 ab6:	22308093          	addi	ra,ra,547 # 1223 <pass+0x453>
 aba:	00111123          	sh	ra,2(sp)
 abe:	00211703          	lh	a4,2(sp)
 ac2:	00e11123          	sh	a4,2(sp)
 ac6:	00211103          	lh	sp,2(sp)
 aca:	6385                	lui	t2,0x1
 acc:	22338393          	addi	t2,t2,547 # 1223 <pass+0x453>
 ad0:	2e711463          	bne	sp,t2,db8 <fail>
 ad4:	00fff117          	auipc	sp,0xfff
 ad8:	52c10113          	addi	sp,sp,1324 # 1000000 <__DATA_BEGIN__>
 adc:	c40a                	sw	sp,8(sp)
 ade:	4222                	lw	tp,8(sp)
 ae0:	00121123          	sh	ra,2(tp) # 2 <_start+0x2>
 ae4:	2c221a63          	bne	tp,sp,db8 <fail>
 ae8:	00221703          	lh	a4,2(tp) # 2 <_start+0x2>
 aec:	2c771663          	bne	a4,t2,db8 <fail>

00000af0 <test_40>:
 af0:	02800193          	li	gp,40
 af4:	00fff117          	auipc	sp,0xfff
 af8:	50c10113          	addi	sp,sp,1292 # 1000000 <__DATA_BEGIN__>
 afc:	6085                	lui	ra,0x1
 afe:	12208093          	addi	ra,ra,290 # 1122 <pass+0x352>
 b02:	00111223          	sh	ra,4(sp)
 b06:	00411703          	lh	a4,4(sp)
 b0a:	00e11223          	sh	a4,4(sp)
 b0e:	00411103          	lh	sp,4(sp)
 b12:	6385                	lui	t2,0x1
 b14:	12238393          	addi	t2,t2,290 # 1122 <pass+0x352>
 b18:	2a711063          	bne	sp,t2,db8 <fail>
 b1c:	00fff117          	auipc	sp,0xfff
 b20:	4e410113          	addi	sp,sp,1252 # 1000000 <__DATA_BEGIN__>
 b24:	c40a                	sw	sp,8(sp)
 b26:	4222                	lw	tp,8(sp)
 b28:	00121223          	sh	ra,4(tp) # 4 <trap_vector>
 b2c:	28221663          	bne	tp,sp,db8 <fail>
 b30:	00421703          	lh	a4,4(tp) # 4 <trap_vector>
 b34:	28771263          	bne	a4,t2,db8 <fail>

00000b38 <test_41>:
 b38:	02900193          	li	gp,41
 b3c:	00fff117          	auipc	sp,0xfff
 b40:	4c410113          	addi	sp,sp,1220 # 1000000 <__DATA_BEGIN__>
 b44:	11200093          	li	ra,274
 b48:	00111323          	sh	ra,6(sp)
 b4c:	00611703          	lh	a4,6(sp)
 b50:	00e11323          	sh	a4,6(sp)
 b54:	00611103          	lh	sp,6(sp)
 b58:	11200393          	li	t2,274
 b5c:	24711e63          	bne	sp,t2,db8 <fail>
 b60:	00fff117          	auipc	sp,0xfff
 b64:	4a010113          	addi	sp,sp,1184 # 1000000 <__DATA_BEGIN__>
 b68:	c40a                	sw	sp,8(sp)
 b6a:	4222                	lw	tp,8(sp)
 b6c:	00121323          	sh	ra,6(tp) # 6 <trap_vector+0x2>
 b70:	24221463          	bne	tp,sp,db8 <fail>
 b74:	00621703          	lh	a4,6(tp) # 6 <trap_vector+0x2>
 b78:	24771063          	bne	a4,t2,db8 <fail>

00000b7c <test_42>:
 b7c:	02a00193          	li	gp,42
 b80:	00fff117          	auipc	sp,0xfff
 b84:	48010113          	addi	sp,sp,1152 # 1000000 <__DATA_BEGIN__>
 b88:	40c5                	li	ra,17
 b8a:	00111423          	sh	ra,8(sp)
 b8e:	00811703          	lh	a4,8(sp)
 b92:	00e11423          	sh	a4,8(sp)
 b96:	00811103          	lh	sp,8(sp)
 b9a:	43c5                	li	t2,17
 b9c:	20711e63          	bne	sp,t2,db8 <fail>
 ba0:	00fff117          	auipc	sp,0xfff
 ba4:	46010113          	addi	sp,sp,1120 # 1000000 <__DATA_BEGIN__>
 ba8:	c40a                	sw	sp,8(sp)
 baa:	4222                	lw	tp,8(sp)
 bac:	00121423          	sh	ra,8(tp) # 8 <trap_vector+0x4>
 bb0:	20221463          	bne	tp,sp,db8 <fail>
 bb4:	00821703          	lh	a4,8(tp) # 8 <trap_vector+0x4>
 bb8:	20771063          	bne	a4,t2,db8 <fail>

00000bbc <test_43>:
 bbc:	02b00193          	li	gp,43
 bc0:	00fff117          	auipc	sp,0xfff
 bc4:	44010113          	addi	sp,sp,1088 # 1000000 <__DATA_BEGIN__>
 bc8:	608d                	lui	ra,0x3
 bca:	0085                	addi	ra,ra,1 # 3001 <pass+0x2231>
 bcc:	00111523          	sh	ra,10(sp)
 bd0:	00a11703          	lh	a4,10(sp)
 bd4:	00e11523          	sh	a4,10(sp)
 bd8:	00a11103          	lh	sp,10(sp)
 bdc:	638d                	lui	t2,0x3
 bde:	0385                	addi	t2,t2,1 # 3001 <pass+0x2231>
 be0:	1c711c63          	bne	sp,t2,db8 <fail>
 be4:	00fff117          	auipc	sp,0xfff
 be8:	41c10113          	addi	sp,sp,1052 # 1000000 <__DATA_BEGIN__>
 bec:	c40a                	sw	sp,8(sp)
 bee:	4222                	lw	tp,8(sp)
 bf0:	00121523          	sh	ra,10(tp) # a <trap_vector+0x6>
 bf4:	1c221263          	bne	tp,sp,db8 <fail>
 bf8:	00a21703          	lh	a4,10(tp) # a <trap_vector+0x6>
 bfc:	1a771e63          	bne	a4,t2,db8 <fail>

00000c00 <test_44>:
 c00:	02c00193          	li	gp,44
 c04:	00fff117          	auipc	sp,0xfff
 c08:	3fc10113          	addi	sp,sp,1020 # 1000000 <__DATA_BEGIN__>
 c0c:	6089                	lui	ra,0x2
 c0e:	23308093          	addi	ra,ra,563 # 2233 <pass+0x1463>
 c12:	00111023          	sh	ra,0(sp)
 c16:	00015703          	lhu	a4,0(sp)
 c1a:	00e11023          	sh	a4,0(sp)
 c1e:	00015103          	lhu	sp,0(sp)
 c22:	6389                	lui	t2,0x2
 c24:	23338393          	addi	t2,t2,563 # 2233 <pass+0x1463>
 c28:	18711863          	bne	sp,t2,db8 <fail>
 c2c:	00fff117          	auipc	sp,0xfff
 c30:	3d410113          	addi	sp,sp,980 # 1000000 <__DATA_BEGIN__>
 c34:	c40a                	sw	sp,8(sp)
 c36:	4222                	lw	tp,8(sp)
 c38:	00121023          	sh	ra,0(tp) # 0 <_start>
 c3c:	16221e63          	bne	tp,sp,db8 <fail>
 c40:	00025703          	lhu	a4,0(tp) # 0 <_start>
 c44:	16771a63          	bne	a4,t2,db8 <fail>

00000c48 <test_45>:
 c48:	02d00193          	li	gp,45
 c4c:	00fff117          	auipc	sp,0xfff
 c50:	3b410113          	addi	sp,sp,948 # 1000000 <__DATA_BEGIN__>
 c54:	6085                	lui	ra,0x1
 c56:	22308093          	addi	ra,ra,547 # 1223 <pass+0x453>
 c5a:	00111123          	sh	ra,2(sp)
 c5e:	00215703          	lhu	a4,2(sp)
 c62:	00e11123          	sh	a4,2(sp)
 c66:	00215103          	lhu	sp,2(sp)
 c6a:	6385                	lui	t2,0x1
 c6c:	22338393          	addi	t2,t2,547 # 1223 <pass+0x453>
 c70:	14711463          	bne	sp,t2,db8 <fail>
 c74:	00fff117          	auipc	sp,0xfff
 c78:	38c10113          	addi	sp,sp,908 # 1000000 <__DATA_BEGIN__>
 c7c:	c40a                	sw	sp,8(sp)
 c7e:	4222                	lw	tp,8(sp)
 c80:	00121123          	sh	ra,2(tp) # 2 <_start+0x2>
 c84:	12221a63          	bne	tp,sp,db8 <fail>
 c88:	00225703          	lhu	a4,2(tp) # 2 <_start+0x2>
 c8c:	12771663          	bne	a4,t2,db8 <fail>

00000c90 <test_46>:
 c90:	02e00193          	li	gp,46
 c94:	00fff117          	auipc	sp,0xfff
 c98:	36c10113          	addi	sp,sp,876 # 1000000 <__DATA_BEGIN__>
 c9c:	6085                	lui	ra,0x1
 c9e:	12208093          	addi	ra,ra,290 # 1122 <pass+0x352>
 ca2:	00111223          	sh	ra,4(sp)
 ca6:	00415703          	lhu	a4,4(sp)
 caa:	00e11223          	sh	a4,4(sp)
 cae:	00415103          	lhu	sp,4(sp)
 cb2:	6385                	lui	t2,0x1
 cb4:	12238393          	addi	t2,t2,290 # 1122 <pass+0x352>
 cb8:	10711063          	bne	sp,t2,db8 <fail>
 cbc:	00fff117          	auipc	sp,0xfff
 cc0:	34410113          	addi	sp,sp,836 # 1000000 <__DATA_BEGIN__>
 cc4:	c40a                	sw	sp,8(sp)
 cc6:	4222                	lw	tp,8(sp)
 cc8:	00121223          	sh	ra,4(tp) # 4 <trap_vector>
 ccc:	0e221663          	bne	tp,sp,db8 <fail>
 cd0:	00425703          	lhu	a4,4(tp) # 4 <trap_vector>
 cd4:	0e771263          	bne	a4,t2,db8 <fail>

00000cd8 <test_47>:
 cd8:	02f00193          	li	gp,47
 cdc:	00fff117          	auipc	sp,0xfff
 ce0:	32410113          	addi	sp,sp,804 # 1000000 <__DATA_BEGIN__>
 ce4:	11200093          	li	ra,274
 ce8:	00111323          	sh	ra,6(sp)
 cec:	00615703          	lhu	a4,6(sp)
 cf0:	00e11323          	sh	a4,6(sp)
 cf4:	00615103          	lhu	sp,6(sp)
 cf8:	11200393          	li	t2,274
 cfc:	0a711e63          	bne	sp,t2,db8 <fail>
 d00:	00fff117          	auipc	sp,0xfff
 d04:	30010113          	addi	sp,sp,768 # 1000000 <__DATA_BEGIN__>
 d08:	c40a                	sw	sp,8(sp)
 d0a:	4222                	lw	tp,8(sp)
 d0c:	00121323          	sh	ra,6(tp) # 6 <trap_vector+0x2>
 d10:	0a221463          	bne	tp,sp,db8 <fail>
 d14:	00625703          	lhu	a4,6(tp) # 6 <trap_vector+0x2>
 d18:	0a771063          	bne	a4,t2,db8 <fail>

00000d1c <test_48>:
 d1c:	03000193          	li	gp,48
 d20:	00fff117          	auipc	sp,0xfff
 d24:	2e010113          	addi	sp,sp,736 # 1000000 <__DATA_BEGIN__>
 d28:	40c5                	li	ra,17
 d2a:	00111423          	sh	ra,8(sp)
 d2e:	00815703          	lhu	a4,8(sp)
 d32:	00e11423          	sh	a4,8(sp)
 d36:	00815103          	lhu	sp,8(sp)
 d3a:	43c5                	li	t2,17
 d3c:	06711e63          	bne	sp,t2,db8 <fail>
 d40:	00fff117          	auipc	sp,0xfff
 d44:	2c010113          	addi	sp,sp,704 # 1000000 <__DATA_BEGIN__>
 d48:	c40a                	sw	sp,8(sp)
 d4a:	4222                	lw	tp,8(sp)
 d4c:	00121423          	sh	ra,8(tp) # 8 <trap_vector+0x4>
 d50:	06221463          	bne	tp,sp,db8 <fail>
 d54:	00825703          	lhu	a4,8(tp) # 8 <trap_vector+0x4>
 d58:	06771063          	bne	a4,t2,db8 <fail>

00000d5c <test_49>:
 d5c:	03100193          	li	gp,49
 d60:	00fff117          	auipc	sp,0xfff
 d64:	2a010113          	addi	sp,sp,672 # 1000000 <__DATA_BEGIN__>
 d68:	608d                	lui	ra,0x3
 d6a:	0085                	addi	ra,ra,1 # 3001 <pass+0x2231>
 d6c:	00111523          	sh	ra,10(sp)
 d70:	00a15703          	lhu	a4,10(sp)
 d74:	00e11523          	sh	a4,10(sp)
 d78:	00a15103          	lhu	sp,10(sp)
 d7c:	638d                	lui	t2,0x3
 d7e:	0385                	addi	t2,t2,1 # 3001 <pass+0x2231>
 d80:	02711c63          	bne	sp,t2,db8 <fail>
 d84:	00fff117          	auipc	sp,0xfff
 d88:	27c10113          	addi	sp,sp,636 # 1000000 <__DATA_BEGIN__>
 d8c:	c40a                	sw	sp,8(sp)
 d8e:	4222                	lw	tp,8(sp)
 d90:	00121523          	sh	ra,10(tp) # a <trap_vector+0x6>
 d94:	02221263          	bne	tp,sp,db8 <fail>
 d98:	00a25703          	lhu	a4,10(tp) # a <trap_vector+0x6>
 d9c:	00771e63          	bne	a4,t2,db8 <fail>
 da0:	0ef00513          	li	a0,239
 da4:	00fff597          	auipc	a1,0xfff
 da8:	25c58593          	addi	a1,a1,604 # 1000000 <__DATA_BEGIN__>
 dac:	00a581a3          	sb	a0,3(a1)
 db0:	00358603          	lb	a2,3(a1)
 db4:	00301e63          	bne	zero,gp,dd0 <pass>

00000db8 <fail>:
 db8:	0ff0000f          	fence
 dbc:	00018063          	beqz	gp,dbc <fail+0x4>
 dc0:	0186                	slli	gp,gp,0x1
 dc2:	0011e193          	ori	gp,gp,1
 dc6:	05d00893          	li	a7,93
 dca:	850e                	mv	a0,gp
 dcc:	00000073          	ecall

00000dd0 <pass>:
 dd0:	0ff0000f          	fence
 dd4:	4185                	li	gp,1
 dd6:	05d00893          	li	a7,93
 dda:	4501                	li	a0,0
 ddc:	00000073          	ecall
	...
