
/home/thanhtran/fpga/RV32E/tb/riscv-tests/rv32ui/ld_st.S.v2:     file format elf32-littleriscv


Disassembly of section .text:

00000000 <_start>:
       0:	0440006f          	j	44 <reset_vector>

00000004 <trap_vector>:
       4:	34202f73          	csrr	t5,mcause
       8:	00800f93          	li	t6,8
       c:	03ff0863          	beq	t5,t6,3c <write_tohost>
      10:	00900f93          	li	t6,9
      14:	03ff0463          	beq	t5,t6,3c <write_tohost>
      18:	00b00f93          	li	t6,11
      1c:	03ff0063          	beq	t5,t6,3c <write_tohost>
      20:	00000f13          	li	t5,0
      24:	000f0463          	beqz	t5,2c <trap_vector+0x28>
      28:	000f0067          	jr	t5
      2c:	34202f73          	csrr	t5,mcause
      30:	000f5463          	bgez	t5,38 <handle_exception>
      34:	0040006f          	j	38 <handle_exception>

00000038 <handle_exception>:
      38:	5391e193          	ori	gp,gp,1337

0000003c <write_tohost>:
      3c:	8831a023          	sw	gp,-1920(gp) # 2080 <tohost>
      40:	ffdff06f          	j	3c <write_tohost>

00000044 <reset_vector>:
      44:	00000093          	li	ra,0
      48:	00000113          	li	sp,0
      4c:	00000193          	li	gp,0
      50:	00000213          	li	tp,0
      54:	00000293          	li	t0,0
      58:	00000313          	li	t1,0
      5c:	00000393          	li	t2,0
      60:	00000413          	li	s0,0
      64:	00000493          	li	s1,0
      68:	00000513          	li	a0,0
      6c:	00000593          	li	a1,0
      70:	00000613          	li	a2,0
      74:	00000693          	li	a3,0
      78:	00000713          	li	a4,0
      7c:	00000793          	li	a5,0
      80:	00000813          	li	a6,0
      84:	00000893          	li	a7,0
      88:	00000913          	li	s2,0
      8c:	00000993          	li	s3,0
      90:	00000a13          	li	s4,0
      94:	00000a93          	li	s5,0
      98:	00000b13          	li	s6,0
      9c:	00000b93          	li	s7,0
      a0:	00000c13          	li	s8,0
      a4:	00000c93          	li	s9,0
      a8:	00000d13          	li	s10,0
      ac:	00000d93          	li	s11,0
      b0:	00000e13          	li	t3,0
      b4:	00000e93          	li	t4,0
      b8:	00000f13          	li	t5,0
      bc:	00000f93          	li	t6,0
      c0:	f1402573          	csrr	a0,mhartid
      c4:	00051063          	bnez	a0,c4 <reset_vector+0x80>
      c8:	00000297          	auipc	t0,0x0
      cc:	01028293          	addi	t0,t0,16 # d8 <reset_vector+0x94>
      d0:	30529073          	csrw	mtvec,t0
      d4:	18005073          	csrwi	satp,0
      d8:	00000297          	auipc	t0,0x0
      dc:	02028293          	addi	t0,t0,32 # f8 <reset_vector+0xb4>
      e0:	30529073          	csrw	mtvec,t0
      e4:	800002b7          	lui	t0,0x80000
      e8:	fff28293          	addi	t0,t0,-1 # 7fffffff <__global_pointer$+0x7fffd7ff>
      ec:	3b029073          	csrw	pmpaddr0,t0
      f0:	01f00293          	li	t0,31
      f4:	3a029073          	csrw	pmpcfg0,t0
      f8:	30405073          	csrwi	mie,0
      fc:	00000297          	auipc	t0,0x0
     100:	01428293          	addi	t0,t0,20 # 110 <reset_vector+0xcc>
     104:	30529073          	csrw	mtvec,t0
     108:	30205073          	csrwi	medeleg,0
     10c:	30305073          	csrwi	mideleg,0
     110:	00000193          	li	gp,0
     114:	00000297          	auipc	t0,0x0
     118:	ef028293          	addi	t0,t0,-272 # 4 <trap_vector>
     11c:	30529073          	csrw	mtvec,t0
     120:	00100513          	li	a0,1
     124:	01f51513          	slli	a0,a0,0x1f
     128:	00054c63          	bltz	a0,140 <reset_vector+0xfc>
     12c:	0ff0000f          	fence
     130:	00100193          	li	gp,1
     134:	05d00893          	li	a7,93
     138:	00000513          	li	a0,0
     13c:	00000073          	ecall
     140:	00000293          	li	t0,0
     144:	00028a63          	beqz	t0,158 <reset_vector+0x114>
     148:	10529073          	csrw	stvec,t0
     14c:	0000b2b7          	lui	t0,0xb
     150:	10928293          	addi	t0,t0,265 # b109 <__global_pointer$+0x8909>
     154:	30229073          	csrw	medeleg,t0
     158:	30005073          	csrwi	mstatus,0
     15c:	00000297          	auipc	t0,0x0
     160:	01428293          	addi	t0,t0,20 # 170 <test_2>
     164:	34129073          	csrw	mepc,t0
     168:	f1402573          	csrr	a0,mhartid
     16c:	30200073          	mret

00000170 <test_2>:
     170:	00200193          	li	gp,2
     174:	00002117          	auipc	sp,0x2
     178:	e8c10113          	addi	sp,sp,-372 # 2000 <__DATA_BEGIN__>
     17c:	fdd00093          	li	ra,-35
     180:	00110023          	sb	ra,0(sp)
     184:	00010703          	lb	a4,0(sp)
     188:	00e10023          	sb	a4,0(sp)
     18c:	00010103          	lb	sp,0(sp)
     190:	fdd00393          	li	t2,-35
     194:	647112e3          	bne	sp,t2,fd8 <fail>
     198:	00002117          	auipc	sp,0x2
     19c:	e6810113          	addi	sp,sp,-408 # 2000 <__DATA_BEGIN__>
     1a0:	00212423          	sw	sp,8(sp)
     1a4:	00812203          	lw	tp,8(sp)
     1a8:	00120023          	sb	ra,0(tp) # 0 <_start>
     1ac:	622216e3          	bne	tp,sp,fd8 <fail>
     1b0:	00020703          	lb	a4,0(tp) # 0 <_start>
     1b4:	627712e3          	bne	a4,t2,fd8 <fail>

000001b8 <test_3>:
     1b8:	00300193          	li	gp,3
     1bc:	00002117          	auipc	sp,0x2
     1c0:	e4410113          	addi	sp,sp,-444 # 2000 <__DATA_BEGIN__>
     1c4:	fcd00093          	li	ra,-51
     1c8:	001100a3          	sb	ra,1(sp)
     1cc:	00110703          	lb	a4,1(sp)
     1d0:	00e100a3          	sb	a4,1(sp)
     1d4:	00110103          	lb	sp,1(sp)
     1d8:	fcd00393          	li	t2,-51
     1dc:	5e711ee3          	bne	sp,t2,fd8 <fail>
     1e0:	00002117          	auipc	sp,0x2
     1e4:	e2010113          	addi	sp,sp,-480 # 2000 <__DATA_BEGIN__>
     1e8:	00212423          	sw	sp,8(sp)
     1ec:	00812203          	lw	tp,8(sp)
     1f0:	001200a3          	sb	ra,1(tp) # 1 <_start+0x1>
     1f4:	5e2212e3          	bne	tp,sp,fd8 <fail>
     1f8:	00120703          	lb	a4,1(tp) # 1 <_start+0x1>
     1fc:	5c771ee3          	bne	a4,t2,fd8 <fail>

00000200 <test_4>:
     200:	00400193          	li	gp,4
     204:	00002117          	auipc	sp,0x2
     208:	dfc10113          	addi	sp,sp,-516 # 2000 <__DATA_BEGIN__>
     20c:	fcc00093          	li	ra,-52
     210:	00110123          	sb	ra,2(sp)
     214:	00210703          	lb	a4,2(sp)
     218:	00e10123          	sb	a4,2(sp)
     21c:	00210103          	lb	sp,2(sp)
     220:	fcc00393          	li	t2,-52
     224:	5a711ae3          	bne	sp,t2,fd8 <fail>
     228:	00002117          	auipc	sp,0x2
     22c:	dd810113          	addi	sp,sp,-552 # 2000 <__DATA_BEGIN__>
     230:	00212423          	sw	sp,8(sp)
     234:	00812203          	lw	tp,8(sp)
     238:	00120123          	sb	ra,2(tp) # 2 <_start+0x2>
     23c:	58221ee3          	bne	tp,sp,fd8 <fail>
     240:	00220703          	lb	a4,2(tp) # 2 <_start+0x2>
     244:	58771ae3          	bne	a4,t2,fd8 <fail>

00000248 <test_5>:
     248:	00500193          	li	gp,5
     24c:	00002117          	auipc	sp,0x2
     250:	db410113          	addi	sp,sp,-588 # 2000 <__DATA_BEGIN__>
     254:	fbc00093          	li	ra,-68
     258:	001101a3          	sb	ra,3(sp)
     25c:	00310703          	lb	a4,3(sp)
     260:	00e101a3          	sb	a4,3(sp)
     264:	00310103          	lb	sp,3(sp)
     268:	fbc00393          	li	t2,-68
     26c:	567116e3          	bne	sp,t2,fd8 <fail>
     270:	00002117          	auipc	sp,0x2
     274:	d9010113          	addi	sp,sp,-624 # 2000 <__DATA_BEGIN__>
     278:	00212423          	sw	sp,8(sp)
     27c:	00812203          	lw	tp,8(sp)
     280:	001201a3          	sb	ra,3(tp) # 3 <_start+0x3>
     284:	54221ae3          	bne	tp,sp,fd8 <fail>
     288:	00320703          	lb	a4,3(tp) # 3 <_start+0x3>
     28c:	547716e3          	bne	a4,t2,fd8 <fail>

00000290 <test_6>:
     290:	00600193          	li	gp,6
     294:	00002117          	auipc	sp,0x2
     298:	d6c10113          	addi	sp,sp,-660 # 2000 <__DATA_BEGIN__>
     29c:	fbb00093          	li	ra,-69
     2a0:	00110223          	sb	ra,4(sp)
     2a4:	00410703          	lb	a4,4(sp)
     2a8:	00e10223          	sb	a4,4(sp)
     2ac:	00410103          	lb	sp,4(sp)
     2b0:	fbb00393          	li	t2,-69
     2b4:	527112e3          	bne	sp,t2,fd8 <fail>
     2b8:	00002117          	auipc	sp,0x2
     2bc:	d4810113          	addi	sp,sp,-696 # 2000 <__DATA_BEGIN__>
     2c0:	00212423          	sw	sp,8(sp)
     2c4:	00812203          	lw	tp,8(sp)
     2c8:	00120223          	sb	ra,4(tp) # 4 <trap_vector>
     2cc:	502216e3          	bne	tp,sp,fd8 <fail>
     2d0:	00420703          	lb	a4,4(tp) # 4 <trap_vector>
     2d4:	507712e3          	bne	a4,t2,fd8 <fail>

000002d8 <test_7>:
     2d8:	00700193          	li	gp,7
     2dc:	00002117          	auipc	sp,0x2
     2e0:	d2410113          	addi	sp,sp,-732 # 2000 <__DATA_BEGIN__>
     2e4:	fab00093          	li	ra,-85
     2e8:	001102a3          	sb	ra,5(sp)
     2ec:	00510703          	lb	a4,5(sp)
     2f0:	00e102a3          	sb	a4,5(sp)
     2f4:	00510103          	lb	sp,5(sp)
     2f8:	fab00393          	li	t2,-85
     2fc:	4c711ee3          	bne	sp,t2,fd8 <fail>
     300:	00002117          	auipc	sp,0x2
     304:	d0010113          	addi	sp,sp,-768 # 2000 <__DATA_BEGIN__>
     308:	00212423          	sw	sp,8(sp)
     30c:	00812203          	lw	tp,8(sp)
     310:	001202a3          	sb	ra,5(tp) # 5 <trap_vector+0x1>
     314:	4c2212e3          	bne	tp,sp,fd8 <fail>
     318:	00520703          	lb	a4,5(tp) # 5 <trap_vector+0x1>
     31c:	4a771ee3          	bne	a4,t2,fd8 <fail>

00000320 <test_8>:
     320:	00800193          	li	gp,8
     324:	00002117          	auipc	sp,0x2
     328:	cdc10113          	addi	sp,sp,-804 # 2000 <__DATA_BEGIN__>
     32c:	03300093          	li	ra,51
     330:	00110023          	sb	ra,0(sp)
     334:	00010703          	lb	a4,0(sp)
     338:	00e10023          	sb	a4,0(sp)
     33c:	00010103          	lb	sp,0(sp)
     340:	03300393          	li	t2,51
     344:	48711ae3          	bne	sp,t2,fd8 <fail>
     348:	00002117          	auipc	sp,0x2
     34c:	cb810113          	addi	sp,sp,-840 # 2000 <__DATA_BEGIN__>
     350:	00212423          	sw	sp,8(sp)
     354:	00812203          	lw	tp,8(sp)
     358:	00120023          	sb	ra,0(tp) # 0 <_start>
     35c:	46221ee3          	bne	tp,sp,fd8 <fail>
     360:	00020703          	lb	a4,0(tp) # 0 <_start>
     364:	46771ae3          	bne	a4,t2,fd8 <fail>

00000368 <test_9>:
     368:	00900193          	li	gp,9
     36c:	00002117          	auipc	sp,0x2
     370:	c9410113          	addi	sp,sp,-876 # 2000 <__DATA_BEGIN__>
     374:	02300093          	li	ra,35
     378:	001100a3          	sb	ra,1(sp)
     37c:	00110703          	lb	a4,1(sp)
     380:	00e100a3          	sb	a4,1(sp)
     384:	00110103          	lb	sp,1(sp)
     388:	02300393          	li	t2,35
     38c:	447116e3          	bne	sp,t2,fd8 <fail>
     390:	00002117          	auipc	sp,0x2
     394:	c7010113          	addi	sp,sp,-912 # 2000 <__DATA_BEGIN__>
     398:	00212423          	sw	sp,8(sp)
     39c:	00812203          	lw	tp,8(sp)
     3a0:	001200a3          	sb	ra,1(tp) # 1 <_start+0x1>
     3a4:	42221ae3          	bne	tp,sp,fd8 <fail>
     3a8:	00120703          	lb	a4,1(tp) # 1 <_start+0x1>
     3ac:	427716e3          	bne	a4,t2,fd8 <fail>

000003b0 <test_10>:
     3b0:	00a00193          	li	gp,10
     3b4:	00002117          	auipc	sp,0x2
     3b8:	c4c10113          	addi	sp,sp,-948 # 2000 <__DATA_BEGIN__>
     3bc:	02200093          	li	ra,34
     3c0:	00110123          	sb	ra,2(sp)
     3c4:	00210703          	lb	a4,2(sp)
     3c8:	00e10123          	sb	a4,2(sp)
     3cc:	00210103          	lb	sp,2(sp)
     3d0:	02200393          	li	t2,34
     3d4:	407112e3          	bne	sp,t2,fd8 <fail>
     3d8:	00002117          	auipc	sp,0x2
     3dc:	c2810113          	addi	sp,sp,-984 # 2000 <__DATA_BEGIN__>
     3e0:	00212423          	sw	sp,8(sp)
     3e4:	00812203          	lw	tp,8(sp)
     3e8:	00120123          	sb	ra,2(tp) # 2 <_start+0x2>
     3ec:	3e2216e3          	bne	tp,sp,fd8 <fail>
     3f0:	00220703          	lb	a4,2(tp) # 2 <_start+0x2>
     3f4:	3e7712e3          	bne	a4,t2,fd8 <fail>

000003f8 <test_11>:
     3f8:	00b00193          	li	gp,11
     3fc:	00002117          	auipc	sp,0x2
     400:	c0410113          	addi	sp,sp,-1020 # 2000 <__DATA_BEGIN__>
     404:	01200093          	li	ra,18
     408:	001101a3          	sb	ra,3(sp)
     40c:	00310703          	lb	a4,3(sp)
     410:	00e101a3          	sb	a4,3(sp)
     414:	00310103          	lb	sp,3(sp)
     418:	01200393          	li	t2,18
     41c:	3a711ee3          	bne	sp,t2,fd8 <fail>
     420:	00002117          	auipc	sp,0x2
     424:	be010113          	addi	sp,sp,-1056 # 2000 <__DATA_BEGIN__>
     428:	00212423          	sw	sp,8(sp)
     42c:	00812203          	lw	tp,8(sp)
     430:	001201a3          	sb	ra,3(tp) # 3 <_start+0x3>
     434:	3a2212e3          	bne	tp,sp,fd8 <fail>
     438:	00320703          	lb	a4,3(tp) # 3 <_start+0x3>
     43c:	38771ee3          	bne	a4,t2,fd8 <fail>

00000440 <test_12>:
     440:	00c00193          	li	gp,12
     444:	00002117          	auipc	sp,0x2
     448:	bbc10113          	addi	sp,sp,-1092 # 2000 <__DATA_BEGIN__>
     44c:	01100093          	li	ra,17
     450:	00110223          	sb	ra,4(sp)
     454:	00410703          	lb	a4,4(sp)
     458:	00e10223          	sb	a4,4(sp)
     45c:	00410103          	lb	sp,4(sp)
     460:	01100393          	li	t2,17
     464:	36711ae3          	bne	sp,t2,fd8 <fail>
     468:	00002117          	auipc	sp,0x2
     46c:	b9810113          	addi	sp,sp,-1128 # 2000 <__DATA_BEGIN__>
     470:	00212423          	sw	sp,8(sp)
     474:	00812203          	lw	tp,8(sp)
     478:	00120223          	sb	ra,4(tp) # 4 <trap_vector>
     47c:	34221ee3          	bne	tp,sp,fd8 <fail>
     480:	00420703          	lb	a4,4(tp) # 4 <trap_vector>
     484:	34771ae3          	bne	a4,t2,fd8 <fail>

00000488 <test_13>:
     488:	00d00193          	li	gp,13
     48c:	00002117          	auipc	sp,0x2
     490:	b7410113          	addi	sp,sp,-1164 # 2000 <__DATA_BEGIN__>
     494:	00100093          	li	ra,1
     498:	001102a3          	sb	ra,5(sp)
     49c:	00510703          	lb	a4,5(sp)
     4a0:	00e102a3          	sb	a4,5(sp)
     4a4:	00510103          	lb	sp,5(sp)
     4a8:	00100393          	li	t2,1
     4ac:	327116e3          	bne	sp,t2,fd8 <fail>
     4b0:	00002117          	auipc	sp,0x2
     4b4:	b5010113          	addi	sp,sp,-1200 # 2000 <__DATA_BEGIN__>
     4b8:	00212423          	sw	sp,8(sp)
     4bc:	00812203          	lw	tp,8(sp)
     4c0:	001202a3          	sb	ra,5(tp) # 5 <trap_vector+0x1>
     4c4:	30221ae3          	bne	tp,sp,fd8 <fail>
     4c8:	00520703          	lb	a4,5(tp) # 5 <trap_vector+0x1>
     4cc:	307716e3          	bne	a4,t2,fd8 <fail>

000004d0 <test_14>:
     4d0:	00e00193          	li	gp,14
     4d4:	00002117          	auipc	sp,0x2
     4d8:	b2c10113          	addi	sp,sp,-1236 # 2000 <__DATA_BEGIN__>
     4dc:	03300093          	li	ra,51
     4e0:	00110023          	sb	ra,0(sp)
     4e4:	00014703          	lbu	a4,0(sp)
     4e8:	00e10023          	sb	a4,0(sp)
     4ec:	00014103          	lbu	sp,0(sp)
     4f0:	03300393          	li	t2,51
     4f4:	2e7112e3          	bne	sp,t2,fd8 <fail>
     4f8:	00002117          	auipc	sp,0x2
     4fc:	b0810113          	addi	sp,sp,-1272 # 2000 <__DATA_BEGIN__>
     500:	00212423          	sw	sp,8(sp)
     504:	00812203          	lw	tp,8(sp)
     508:	00120023          	sb	ra,0(tp) # 0 <_start>
     50c:	2c2216e3          	bne	tp,sp,fd8 <fail>
     510:	00024703          	lbu	a4,0(tp) # 0 <_start>
     514:	2c7712e3          	bne	a4,t2,fd8 <fail>

00000518 <test_15>:
     518:	00f00193          	li	gp,15
     51c:	00002117          	auipc	sp,0x2
     520:	ae410113          	addi	sp,sp,-1308 # 2000 <__DATA_BEGIN__>
     524:	02300093          	li	ra,35
     528:	001100a3          	sb	ra,1(sp)
     52c:	00114703          	lbu	a4,1(sp)
     530:	00e100a3          	sb	a4,1(sp)
     534:	00114103          	lbu	sp,1(sp)
     538:	02300393          	li	t2,35
     53c:	28711ee3          	bne	sp,t2,fd8 <fail>
     540:	00002117          	auipc	sp,0x2
     544:	ac010113          	addi	sp,sp,-1344 # 2000 <__DATA_BEGIN__>
     548:	00212423          	sw	sp,8(sp)
     54c:	00812203          	lw	tp,8(sp)
     550:	001200a3          	sb	ra,1(tp) # 1 <_start+0x1>
     554:	282212e3          	bne	tp,sp,fd8 <fail>
     558:	00124703          	lbu	a4,1(tp) # 1 <_start+0x1>
     55c:	26771ee3          	bne	a4,t2,fd8 <fail>

00000560 <test_16>:
     560:	01000193          	li	gp,16
     564:	00002117          	auipc	sp,0x2
     568:	a9c10113          	addi	sp,sp,-1380 # 2000 <__DATA_BEGIN__>
     56c:	02200093          	li	ra,34
     570:	00110123          	sb	ra,2(sp)
     574:	00214703          	lbu	a4,2(sp)
     578:	00e10123          	sb	a4,2(sp)
     57c:	00214103          	lbu	sp,2(sp)
     580:	02200393          	li	t2,34
     584:	24711ae3          	bne	sp,t2,fd8 <fail>
     588:	00002117          	auipc	sp,0x2
     58c:	a7810113          	addi	sp,sp,-1416 # 2000 <__DATA_BEGIN__>
     590:	00212423          	sw	sp,8(sp)
     594:	00812203          	lw	tp,8(sp)
     598:	00120123          	sb	ra,2(tp) # 2 <_start+0x2>
     59c:	22221ee3          	bne	tp,sp,fd8 <fail>
     5a0:	00224703          	lbu	a4,2(tp) # 2 <_start+0x2>
     5a4:	22771ae3          	bne	a4,t2,fd8 <fail>

000005a8 <test_17>:
     5a8:	01100193          	li	gp,17
     5ac:	00002117          	auipc	sp,0x2
     5b0:	a5410113          	addi	sp,sp,-1452 # 2000 <__DATA_BEGIN__>
     5b4:	01200093          	li	ra,18
     5b8:	001101a3          	sb	ra,3(sp)
     5bc:	00314703          	lbu	a4,3(sp)
     5c0:	00e101a3          	sb	a4,3(sp)
     5c4:	00314103          	lbu	sp,3(sp)
     5c8:	01200393          	li	t2,18
     5cc:	207116e3          	bne	sp,t2,fd8 <fail>
     5d0:	00002117          	auipc	sp,0x2
     5d4:	a3010113          	addi	sp,sp,-1488 # 2000 <__DATA_BEGIN__>
     5d8:	00212423          	sw	sp,8(sp)
     5dc:	00812203          	lw	tp,8(sp)
     5e0:	001201a3          	sb	ra,3(tp) # 3 <_start+0x3>
     5e4:	1e221ae3          	bne	tp,sp,fd8 <fail>
     5e8:	00324703          	lbu	a4,3(tp) # 3 <_start+0x3>
     5ec:	1e7716e3          	bne	a4,t2,fd8 <fail>

000005f0 <test_18>:
     5f0:	01200193          	li	gp,18
     5f4:	00002117          	auipc	sp,0x2
     5f8:	a0c10113          	addi	sp,sp,-1524 # 2000 <__DATA_BEGIN__>
     5fc:	01100093          	li	ra,17
     600:	00110223          	sb	ra,4(sp)
     604:	00414703          	lbu	a4,4(sp)
     608:	00e10223          	sb	a4,4(sp)
     60c:	00414103          	lbu	sp,4(sp)
     610:	01100393          	li	t2,17
     614:	1c7112e3          	bne	sp,t2,fd8 <fail>
     618:	00002117          	auipc	sp,0x2
     61c:	9e810113          	addi	sp,sp,-1560 # 2000 <__DATA_BEGIN__>
     620:	00212423          	sw	sp,8(sp)
     624:	00812203          	lw	tp,8(sp)
     628:	00120223          	sb	ra,4(tp) # 4 <trap_vector>
     62c:	1a2216e3          	bne	tp,sp,fd8 <fail>
     630:	00424703          	lbu	a4,4(tp) # 4 <trap_vector>
     634:	1a7712e3          	bne	a4,t2,fd8 <fail>

00000638 <test_19>:
     638:	01300193          	li	gp,19
     63c:	00002117          	auipc	sp,0x2
     640:	9c410113          	addi	sp,sp,-1596 # 2000 <__DATA_BEGIN__>
     644:	00100093          	li	ra,1
     648:	001102a3          	sb	ra,5(sp)
     64c:	00514703          	lbu	a4,5(sp)
     650:	00e102a3          	sb	a4,5(sp)
     654:	00514103          	lbu	sp,5(sp)
     658:	00100393          	li	t2,1
     65c:	16711ee3          	bne	sp,t2,fd8 <fail>
     660:	00002117          	auipc	sp,0x2
     664:	9a010113          	addi	sp,sp,-1632 # 2000 <__DATA_BEGIN__>
     668:	00212423          	sw	sp,8(sp)
     66c:	00812203          	lw	tp,8(sp)
     670:	001202a3          	sb	ra,5(tp) # 5 <trap_vector+0x1>
     674:	162212e3          	bne	tp,sp,fd8 <fail>
     678:	00524703          	lbu	a4,5(tp) # 5 <trap_vector+0x1>
     67c:	14771ee3          	bne	a4,t2,fd8 <fail>

00000680 <test_20>:
     680:	01400193          	li	gp,20
     684:	00002117          	auipc	sp,0x2
     688:	97c10113          	addi	sp,sp,-1668 # 2000 <__DATA_BEGIN__>
     68c:	aabbd0b7          	lui	ra,0xaabbd
     690:	cdd08093          	addi	ra,ra,-803 # aabbccdd <__global_pointer$+0xaabba4dd>
     694:	00112023          	sw	ra,0(sp)
     698:	00012703          	lw	a4,0(sp)
     69c:	00e12023          	sw	a4,0(sp)
     6a0:	00012103          	lw	sp,0(sp)
     6a4:	aabbd3b7          	lui	t2,0xaabbd
     6a8:	cdd38393          	addi	t2,t2,-803 # aabbccdd <__global_pointer$+0xaabba4dd>
     6ac:	127116e3          	bne	sp,t2,fd8 <fail>
     6b0:	00002117          	auipc	sp,0x2
     6b4:	95010113          	addi	sp,sp,-1712 # 2000 <__DATA_BEGIN__>
     6b8:	00212423          	sw	sp,8(sp)
     6bc:	00812203          	lw	tp,8(sp)
     6c0:	00122023          	sw	ra,0(tp) # 0 <_start>
     6c4:	10221ae3          	bne	tp,sp,fd8 <fail>
     6c8:	00022703          	lw	a4,0(tp) # 0 <_start>
     6cc:	107716e3          	bne	a4,t2,fd8 <fail>

000006d0 <test_21>:
     6d0:	01500193          	li	gp,21
     6d4:	00002117          	auipc	sp,0x2
     6d8:	92c10113          	addi	sp,sp,-1748 # 2000 <__DATA_BEGIN__>
     6dc:	daabc0b7          	lui	ra,0xdaabc
     6e0:	ccd08093          	addi	ra,ra,-819 # daabbccd <__global_pointer$+0xdaab94cd>
     6e4:	00112223          	sw	ra,4(sp)
     6e8:	00412703          	lw	a4,4(sp)
     6ec:	00e12223          	sw	a4,4(sp)
     6f0:	00412103          	lw	sp,4(sp)
     6f4:	daabc3b7          	lui	t2,0xdaabc
     6f8:	ccd38393          	addi	t2,t2,-819 # daabbccd <__global_pointer$+0xdaab94cd>
     6fc:	0c711ee3          	bne	sp,t2,fd8 <fail>
     700:	00002117          	auipc	sp,0x2
     704:	90010113          	addi	sp,sp,-1792 # 2000 <__DATA_BEGIN__>
     708:	00212423          	sw	sp,8(sp)
     70c:	00812203          	lw	tp,8(sp)
     710:	00122223          	sw	ra,4(tp) # 4 <trap_vector>
     714:	0c2212e3          	bne	tp,sp,fd8 <fail>
     718:	00422703          	lw	a4,4(tp) # 4 <trap_vector>
     71c:	0a771ee3          	bne	a4,t2,fd8 <fail>

00000720 <test_22>:
     720:	01600193          	li	gp,22
     724:	00002117          	auipc	sp,0x2
     728:	8dc10113          	addi	sp,sp,-1828 # 2000 <__DATA_BEGIN__>
     72c:	ddaac0b7          	lui	ra,0xddaac
     730:	bcc08093          	addi	ra,ra,-1076 # ddaabbcc <__global_pointer$+0xddaa93cc>
     734:	00112423          	sw	ra,8(sp)
     738:	00812703          	lw	a4,8(sp)
     73c:	00e12423          	sw	a4,8(sp)
     740:	00812103          	lw	sp,8(sp)
     744:	ddaac3b7          	lui	t2,0xddaac
     748:	bcc38393          	addi	t2,t2,-1076 # ddaabbcc <__global_pointer$+0xddaa93cc>
     74c:	087116e3          	bne	sp,t2,fd8 <fail>
     750:	00002117          	auipc	sp,0x2
     754:	8b010113          	addi	sp,sp,-1872 # 2000 <__DATA_BEGIN__>
     758:	00212423          	sw	sp,8(sp)
     75c:	00812203          	lw	tp,8(sp)
     760:	00122423          	sw	ra,8(tp) # 8 <trap_vector+0x4>
     764:	06221ae3          	bne	tp,sp,fd8 <fail>
     768:	00822703          	lw	a4,8(tp) # 8 <trap_vector+0x4>
     76c:	067716e3          	bne	a4,t2,fd8 <fail>

00000770 <test_23>:
     770:	01700193          	li	gp,23
     774:	00002117          	auipc	sp,0x2
     778:	88c10113          	addi	sp,sp,-1908 # 2000 <__DATA_BEGIN__>
     77c:	cddab0b7          	lui	ra,0xcddab
     780:	bbc08093          	addi	ra,ra,-1092 # cddaabbc <__global_pointer$+0xcdda83bc>
     784:	00112623          	sw	ra,12(sp)
     788:	00c12703          	lw	a4,12(sp)
     78c:	00e12623          	sw	a4,12(sp)
     790:	00c12103          	lw	sp,12(sp)
     794:	cddab3b7          	lui	t2,0xcddab
     798:	bbc38393          	addi	t2,t2,-1092 # cddaabbc <__global_pointer$+0xcdda83bc>
     79c:	02711ee3          	bne	sp,t2,fd8 <fail>
     7a0:	00002117          	auipc	sp,0x2
     7a4:	86010113          	addi	sp,sp,-1952 # 2000 <__DATA_BEGIN__>
     7a8:	00212423          	sw	sp,8(sp)
     7ac:	00812203          	lw	tp,8(sp)
     7b0:	00122623          	sw	ra,12(tp) # c <trap_vector+0x8>
     7b4:	022212e3          	bne	tp,sp,fd8 <fail>
     7b8:	00c22703          	lw	a4,12(tp) # c <trap_vector+0x8>
     7bc:	00771ee3          	bne	a4,t2,fd8 <fail>

000007c0 <test_24>:
     7c0:	01800193          	li	gp,24
     7c4:	00002117          	auipc	sp,0x2
     7c8:	83c10113          	addi	sp,sp,-1988 # 2000 <__DATA_BEGIN__>
     7cc:	ccddb0b7          	lui	ra,0xccddb
     7d0:	abb08093          	addi	ra,ra,-1349 # ccddaabb <__global_pointer$+0xccdd82bb>
     7d4:	00112823          	sw	ra,16(sp)
     7d8:	01012703          	lw	a4,16(sp)
     7dc:	00e12823          	sw	a4,16(sp)
     7e0:	01012103          	lw	sp,16(sp)
     7e4:	ccddb3b7          	lui	t2,0xccddb
     7e8:	abb38393          	addi	t2,t2,-1349 # ccddaabb <__global_pointer$+0xccdd82bb>
     7ec:	7e711663          	bne	sp,t2,fd8 <fail>
     7f0:	00002117          	auipc	sp,0x2
     7f4:	81010113          	addi	sp,sp,-2032 # 2000 <__DATA_BEGIN__>
     7f8:	00212423          	sw	sp,8(sp)
     7fc:	00812203          	lw	tp,8(sp)
     800:	00122823          	sw	ra,16(tp) # 10 <trap_vector+0xc>
     804:	7c221a63          	bne	tp,sp,fd8 <fail>
     808:	01022703          	lw	a4,16(tp) # 10 <trap_vector+0xc>
     80c:	7c771663          	bne	a4,t2,fd8 <fail>

00000810 <test_25>:
     810:	01900193          	li	gp,25
     814:	00001117          	auipc	sp,0x1
     818:	7ec10113          	addi	sp,sp,2028 # 2000 <__DATA_BEGIN__>
     81c:	bccde0b7          	lui	ra,0xbccde
     820:	aab08093          	addi	ra,ra,-1365 # bccddaab <__global_pointer$+0xbccdb2ab>
     824:	00112a23          	sw	ra,20(sp)
     828:	01412703          	lw	a4,20(sp)
     82c:	00e12a23          	sw	a4,20(sp)
     830:	01412103          	lw	sp,20(sp)
     834:	bccde3b7          	lui	t2,0xbccde
     838:	aab38393          	addi	t2,t2,-1365 # bccddaab <__global_pointer$+0xbccdb2ab>
     83c:	78711e63          	bne	sp,t2,fd8 <fail>
     840:	00001117          	auipc	sp,0x1
     844:	7c010113          	addi	sp,sp,1984 # 2000 <__DATA_BEGIN__>
     848:	00212423          	sw	sp,8(sp)
     84c:	00812203          	lw	tp,8(sp)
     850:	00122a23          	sw	ra,20(tp) # 14 <trap_vector+0x10>
     854:	78221263          	bne	tp,sp,fd8 <fail>
     858:	01422703          	lw	a4,20(tp) # 14 <trap_vector+0x10>
     85c:	76771e63          	bne	a4,t2,fd8 <fail>

00000860 <test_26>:
     860:	01a00193          	li	gp,26
     864:	00001117          	auipc	sp,0x1
     868:	79c10113          	addi	sp,sp,1948 # 2000 <__DATA_BEGIN__>
     86c:	001120b7          	lui	ra,0x112
     870:	23308093          	addi	ra,ra,563 # 112233 <__global_pointer$+0x10fa33>
     874:	00112023          	sw	ra,0(sp)
     878:	00012703          	lw	a4,0(sp)
     87c:	00e12023          	sw	a4,0(sp)
     880:	00012103          	lw	sp,0(sp)
     884:	001123b7          	lui	t2,0x112
     888:	23338393          	addi	t2,t2,563 # 112233 <__global_pointer$+0x10fa33>
     88c:	74711663          	bne	sp,t2,fd8 <fail>
     890:	00001117          	auipc	sp,0x1
     894:	77010113          	addi	sp,sp,1904 # 2000 <__DATA_BEGIN__>
     898:	00212423          	sw	sp,8(sp)
     89c:	00812203          	lw	tp,8(sp)
     8a0:	00122023          	sw	ra,0(tp) # 0 <_start>
     8a4:	72221a63          	bne	tp,sp,fd8 <fail>
     8a8:	00022703          	lw	a4,0(tp) # 0 <_start>
     8ac:	72771663          	bne	a4,t2,fd8 <fail>

000008b0 <test_27>:
     8b0:	01b00193          	li	gp,27
     8b4:	00001117          	auipc	sp,0x1
     8b8:	74c10113          	addi	sp,sp,1868 # 2000 <__DATA_BEGIN__>
     8bc:	300110b7          	lui	ra,0x30011
     8c0:	22308093          	addi	ra,ra,547 # 30011223 <__global_pointer$+0x3000ea23>
     8c4:	00112223          	sw	ra,4(sp)
     8c8:	00412703          	lw	a4,4(sp)
     8cc:	00e12223          	sw	a4,4(sp)
     8d0:	00412103          	lw	sp,4(sp)
     8d4:	300113b7          	lui	t2,0x30011
     8d8:	22338393          	addi	t2,t2,547 # 30011223 <__global_pointer$+0x3000ea23>
     8dc:	6e711e63          	bne	sp,t2,fd8 <fail>
     8e0:	00001117          	auipc	sp,0x1
     8e4:	72010113          	addi	sp,sp,1824 # 2000 <__DATA_BEGIN__>
     8e8:	00212423          	sw	sp,8(sp)
     8ec:	00812203          	lw	tp,8(sp)
     8f0:	00122223          	sw	ra,4(tp) # 4 <trap_vector>
     8f4:	6e221263          	bne	tp,sp,fd8 <fail>
     8f8:	00422703          	lw	a4,4(tp) # 4 <trap_vector>
     8fc:	6c771e63          	bne	a4,t2,fd8 <fail>

00000900 <test_28>:
     900:	01c00193          	li	gp,28
     904:	00001117          	auipc	sp,0x1
     908:	6fc10113          	addi	sp,sp,1788 # 2000 <__DATA_BEGIN__>
     90c:	330010b7          	lui	ra,0x33001
     910:	12208093          	addi	ra,ra,290 # 33001122 <__global_pointer$+0x32ffe922>
     914:	00112423          	sw	ra,8(sp)
     918:	00812703          	lw	a4,8(sp)
     91c:	00e12423          	sw	a4,8(sp)
     920:	00812103          	lw	sp,8(sp)
     924:	330013b7          	lui	t2,0x33001
     928:	12238393          	addi	t2,t2,290 # 33001122 <__global_pointer$+0x32ffe922>
     92c:	6a711663          	bne	sp,t2,fd8 <fail>
     930:	00001117          	auipc	sp,0x1
     934:	6d010113          	addi	sp,sp,1744 # 2000 <__DATA_BEGIN__>
     938:	00212423          	sw	sp,8(sp)
     93c:	00812203          	lw	tp,8(sp)
     940:	00122423          	sw	ra,8(tp) # 8 <trap_vector+0x4>
     944:	68221a63          	bne	tp,sp,fd8 <fail>
     948:	00822703          	lw	a4,8(tp) # 8 <trap_vector+0x4>
     94c:	68771663          	bne	a4,t2,fd8 <fail>

00000950 <test_29>:
     950:	01d00193          	li	gp,29
     954:	00001117          	auipc	sp,0x1
     958:	6ac10113          	addi	sp,sp,1708 # 2000 <__DATA_BEGIN__>
     95c:	233000b7          	lui	ra,0x23300
     960:	11208093          	addi	ra,ra,274 # 23300112 <__global_pointer$+0x232fd912>
     964:	00112623          	sw	ra,12(sp)
     968:	00c12703          	lw	a4,12(sp)
     96c:	00e12623          	sw	a4,12(sp)
     970:	00c12103          	lw	sp,12(sp)
     974:	233003b7          	lui	t2,0x23300
     978:	11238393          	addi	t2,t2,274 # 23300112 <__global_pointer$+0x232fd912>
     97c:	64711e63          	bne	sp,t2,fd8 <fail>
     980:	00001117          	auipc	sp,0x1
     984:	68010113          	addi	sp,sp,1664 # 2000 <__DATA_BEGIN__>
     988:	00212423          	sw	sp,8(sp)
     98c:	00812203          	lw	tp,8(sp)
     990:	00122623          	sw	ra,12(tp) # c <trap_vector+0x8>
     994:	64221263          	bne	tp,sp,fd8 <fail>
     998:	00c22703          	lw	a4,12(tp) # c <trap_vector+0x8>
     99c:	62771e63          	bne	a4,t2,fd8 <fail>

000009a0 <test_30>:
     9a0:	01e00193          	li	gp,30
     9a4:	00001117          	auipc	sp,0x1
     9a8:	65c10113          	addi	sp,sp,1628 # 2000 <__DATA_BEGIN__>
     9ac:	223300b7          	lui	ra,0x22330
     9b0:	01108093          	addi	ra,ra,17 # 22330011 <__global_pointer$+0x2232d811>
     9b4:	00112823          	sw	ra,16(sp)
     9b8:	01012703          	lw	a4,16(sp)
     9bc:	00e12823          	sw	a4,16(sp)
     9c0:	01012103          	lw	sp,16(sp)
     9c4:	223303b7          	lui	t2,0x22330
     9c8:	01138393          	addi	t2,t2,17 # 22330011 <__global_pointer$+0x2232d811>
     9cc:	60711663          	bne	sp,t2,fd8 <fail>
     9d0:	00001117          	auipc	sp,0x1
     9d4:	63010113          	addi	sp,sp,1584 # 2000 <__DATA_BEGIN__>
     9d8:	00212423          	sw	sp,8(sp)
     9dc:	00812203          	lw	tp,8(sp)
     9e0:	00122823          	sw	ra,16(tp) # 10 <trap_vector+0xc>
     9e4:	5e221a63          	bne	tp,sp,fd8 <fail>
     9e8:	01022703          	lw	a4,16(tp) # 10 <trap_vector+0xc>
     9ec:	5e771663          	bne	a4,t2,fd8 <fail>

000009f0 <test_31>:
     9f0:	01f00193          	li	gp,31
     9f4:	00001117          	auipc	sp,0x1
     9f8:	60c10113          	addi	sp,sp,1548 # 2000 <__DATA_BEGIN__>
     9fc:	122330b7          	lui	ra,0x12233
     a00:	00108093          	addi	ra,ra,1 # 12233001 <__global_pointer$+0x12230801>
     a04:	00112a23          	sw	ra,20(sp)
     a08:	01412703          	lw	a4,20(sp)
     a0c:	00e12a23          	sw	a4,20(sp)
     a10:	01412103          	lw	sp,20(sp)
     a14:	122333b7          	lui	t2,0x12233
     a18:	00138393          	addi	t2,t2,1 # 12233001 <__global_pointer$+0x12230801>
     a1c:	5a711e63          	bne	sp,t2,fd8 <fail>
     a20:	00001117          	auipc	sp,0x1
     a24:	5e010113          	addi	sp,sp,1504 # 2000 <__DATA_BEGIN__>
     a28:	00212423          	sw	sp,8(sp)
     a2c:	00812203          	lw	tp,8(sp)
     a30:	00122a23          	sw	ra,20(tp) # 14 <trap_vector+0x10>
     a34:	5a221263          	bne	tp,sp,fd8 <fail>
     a38:	01422703          	lw	a4,20(tp) # 14 <trap_vector+0x10>
     a3c:	58771e63          	bne	a4,t2,fd8 <fail>

00000a40 <test_32>:
     a40:	02000193          	li	gp,32
     a44:	00001117          	auipc	sp,0x1
     a48:	5bc10113          	addi	sp,sp,1468 # 2000 <__DATA_BEGIN__>
     a4c:	ffffd0b7          	lui	ra,0xffffd
     a50:	cdd08093          	addi	ra,ra,-803 # ffffccdd <__global_pointer$+0xffffa4dd>
     a54:	00111023          	sh	ra,0(sp)
     a58:	00011703          	lh	a4,0(sp)
     a5c:	00e11023          	sh	a4,0(sp)
     a60:	00011103          	lh	sp,0(sp)
     a64:	ffffd3b7          	lui	t2,0xffffd
     a68:	cdd38393          	addi	t2,t2,-803 # ffffccdd <__global_pointer$+0xffffa4dd>
     a6c:	56711663          	bne	sp,t2,fd8 <fail>
     a70:	00001117          	auipc	sp,0x1
     a74:	59010113          	addi	sp,sp,1424 # 2000 <__DATA_BEGIN__>
     a78:	00212423          	sw	sp,8(sp)
     a7c:	00812203          	lw	tp,8(sp)
     a80:	00121023          	sh	ra,0(tp) # 0 <_start>
     a84:	54221a63          	bne	tp,sp,fd8 <fail>
     a88:	00021703          	lh	a4,0(tp) # 0 <_start>
     a8c:	54771663          	bne	a4,t2,fd8 <fail>

00000a90 <test_33>:
     a90:	02100193          	li	gp,33
     a94:	00001117          	auipc	sp,0x1
     a98:	56c10113          	addi	sp,sp,1388 # 2000 <__DATA_BEGIN__>
     a9c:	ffffc0b7          	lui	ra,0xffffc
     aa0:	ccd08093          	addi	ra,ra,-819 # ffffbccd <__global_pointer$+0xffff94cd>
     aa4:	00111123          	sh	ra,2(sp)
     aa8:	00211703          	lh	a4,2(sp)
     aac:	00e11123          	sh	a4,2(sp)
     ab0:	00211103          	lh	sp,2(sp)
     ab4:	ffffc3b7          	lui	t2,0xffffc
     ab8:	ccd38393          	addi	t2,t2,-819 # ffffbccd <__global_pointer$+0xffff94cd>
     abc:	50711e63          	bne	sp,t2,fd8 <fail>
     ac0:	00001117          	auipc	sp,0x1
     ac4:	54010113          	addi	sp,sp,1344 # 2000 <__DATA_BEGIN__>
     ac8:	00212423          	sw	sp,8(sp)
     acc:	00812203          	lw	tp,8(sp)
     ad0:	00121123          	sh	ra,2(tp) # 2 <_start+0x2>
     ad4:	50221263          	bne	tp,sp,fd8 <fail>
     ad8:	00221703          	lh	a4,2(tp) # 2 <_start+0x2>
     adc:	4e771e63          	bne	a4,t2,fd8 <fail>

00000ae0 <test_34>:
     ae0:	02200193          	li	gp,34
     ae4:	00001117          	auipc	sp,0x1
     ae8:	51c10113          	addi	sp,sp,1308 # 2000 <__DATA_BEGIN__>
     aec:	ffffc0b7          	lui	ra,0xffffc
     af0:	bcc08093          	addi	ra,ra,-1076 # ffffbbcc <__global_pointer$+0xffff93cc>
     af4:	00111223          	sh	ra,4(sp)
     af8:	00411703          	lh	a4,4(sp)
     afc:	00e11223          	sh	a4,4(sp)
     b00:	00411103          	lh	sp,4(sp)
     b04:	ffffc3b7          	lui	t2,0xffffc
     b08:	bcc38393          	addi	t2,t2,-1076 # ffffbbcc <__global_pointer$+0xffff93cc>
     b0c:	4c711663          	bne	sp,t2,fd8 <fail>
     b10:	00001117          	auipc	sp,0x1
     b14:	4f010113          	addi	sp,sp,1264 # 2000 <__DATA_BEGIN__>
     b18:	00212423          	sw	sp,8(sp)
     b1c:	00812203          	lw	tp,8(sp)
     b20:	00121223          	sh	ra,4(tp) # 4 <trap_vector>
     b24:	4a221a63          	bne	tp,sp,fd8 <fail>
     b28:	00421703          	lh	a4,4(tp) # 4 <trap_vector>
     b2c:	4a771663          	bne	a4,t2,fd8 <fail>

00000b30 <test_35>:
     b30:	02300193          	li	gp,35
     b34:	00001117          	auipc	sp,0x1
     b38:	4cc10113          	addi	sp,sp,1228 # 2000 <__DATA_BEGIN__>
     b3c:	ffffb0b7          	lui	ra,0xffffb
     b40:	bbc08093          	addi	ra,ra,-1092 # ffffabbc <__global_pointer$+0xffff83bc>
     b44:	00111323          	sh	ra,6(sp)
     b48:	00611703          	lh	a4,6(sp)
     b4c:	00e11323          	sh	a4,6(sp)
     b50:	00611103          	lh	sp,6(sp)
     b54:	ffffb3b7          	lui	t2,0xffffb
     b58:	bbc38393          	addi	t2,t2,-1092 # ffffabbc <__global_pointer$+0xffff83bc>
     b5c:	46711e63          	bne	sp,t2,fd8 <fail>
     b60:	00001117          	auipc	sp,0x1
     b64:	4a010113          	addi	sp,sp,1184 # 2000 <__DATA_BEGIN__>
     b68:	00212423          	sw	sp,8(sp)
     b6c:	00812203          	lw	tp,8(sp)
     b70:	00121323          	sh	ra,6(tp) # 6 <trap_vector+0x2>
     b74:	46221263          	bne	tp,sp,fd8 <fail>
     b78:	00621703          	lh	a4,6(tp) # 6 <trap_vector+0x2>
     b7c:	44771e63          	bne	a4,t2,fd8 <fail>

00000b80 <test_36>:
     b80:	02400193          	li	gp,36
     b84:	00001117          	auipc	sp,0x1
     b88:	47c10113          	addi	sp,sp,1148 # 2000 <__DATA_BEGIN__>
     b8c:	ffffb0b7          	lui	ra,0xffffb
     b90:	abb08093          	addi	ra,ra,-1349 # ffffaabb <__global_pointer$+0xffff82bb>
     b94:	00111423          	sh	ra,8(sp)
     b98:	00811703          	lh	a4,8(sp)
     b9c:	00e11423          	sh	a4,8(sp)
     ba0:	00811103          	lh	sp,8(sp)
     ba4:	ffffb3b7          	lui	t2,0xffffb
     ba8:	abb38393          	addi	t2,t2,-1349 # ffffaabb <__global_pointer$+0xffff82bb>
     bac:	42711663          	bne	sp,t2,fd8 <fail>
     bb0:	00001117          	auipc	sp,0x1
     bb4:	45010113          	addi	sp,sp,1104 # 2000 <__DATA_BEGIN__>
     bb8:	00212423          	sw	sp,8(sp)
     bbc:	00812203          	lw	tp,8(sp)
     bc0:	00121423          	sh	ra,8(tp) # 8 <trap_vector+0x4>
     bc4:	40221a63          	bne	tp,sp,fd8 <fail>
     bc8:	00821703          	lh	a4,8(tp) # 8 <trap_vector+0x4>
     bcc:	40771663          	bne	a4,t2,fd8 <fail>

00000bd0 <test_37>:
     bd0:	02500193          	li	gp,37
     bd4:	00001117          	auipc	sp,0x1
     bd8:	42c10113          	addi	sp,sp,1068 # 2000 <__DATA_BEGIN__>
     bdc:	ffffe0b7          	lui	ra,0xffffe
     be0:	aab08093          	addi	ra,ra,-1365 # ffffdaab <__global_pointer$+0xffffb2ab>
     be4:	00111523          	sh	ra,10(sp)
     be8:	00a11703          	lh	a4,10(sp)
     bec:	00e11523          	sh	a4,10(sp)
     bf0:	00a11103          	lh	sp,10(sp)
     bf4:	ffffe3b7          	lui	t2,0xffffe
     bf8:	aab38393          	addi	t2,t2,-1365 # ffffdaab <__global_pointer$+0xffffb2ab>
     bfc:	3c711e63          	bne	sp,t2,fd8 <fail>
     c00:	00001117          	auipc	sp,0x1
     c04:	40010113          	addi	sp,sp,1024 # 2000 <__DATA_BEGIN__>
     c08:	00212423          	sw	sp,8(sp)
     c0c:	00812203          	lw	tp,8(sp)
     c10:	00121523          	sh	ra,10(tp) # a <trap_vector+0x6>
     c14:	3c221263          	bne	tp,sp,fd8 <fail>
     c18:	00a21703          	lh	a4,10(tp) # a <trap_vector+0x6>
     c1c:	3a771e63          	bne	a4,t2,fd8 <fail>

00000c20 <test_38>:
     c20:	02600193          	li	gp,38
     c24:	00001117          	auipc	sp,0x1
     c28:	3dc10113          	addi	sp,sp,988 # 2000 <__DATA_BEGIN__>
     c2c:	000020b7          	lui	ra,0x2
     c30:	23308093          	addi	ra,ra,563 # 2233 <__BSS_END__+0x16b>
     c34:	00111023          	sh	ra,0(sp)
     c38:	00011703          	lh	a4,0(sp)
     c3c:	00e11023          	sh	a4,0(sp)
     c40:	00011103          	lh	sp,0(sp)
     c44:	000023b7          	lui	t2,0x2
     c48:	23338393          	addi	t2,t2,563 # 2233 <__BSS_END__+0x16b>
     c4c:	38711663          	bne	sp,t2,fd8 <fail>
     c50:	00001117          	auipc	sp,0x1
     c54:	3b010113          	addi	sp,sp,944 # 2000 <__DATA_BEGIN__>
     c58:	00212423          	sw	sp,8(sp)
     c5c:	00812203          	lw	tp,8(sp)
     c60:	00121023          	sh	ra,0(tp) # 0 <_start>
     c64:	36221a63          	bne	tp,sp,fd8 <fail>
     c68:	00021703          	lh	a4,0(tp) # 0 <_start>
     c6c:	36771663          	bne	a4,t2,fd8 <fail>

00000c70 <test_39>:
     c70:	02700193          	li	gp,39
     c74:	00001117          	auipc	sp,0x1
     c78:	38c10113          	addi	sp,sp,908 # 2000 <__DATA_BEGIN__>
     c7c:	000010b7          	lui	ra,0x1
     c80:	22308093          	addi	ra,ra,547 # 1223 <pass+0x22f>
     c84:	00111123          	sh	ra,2(sp)
     c88:	00211703          	lh	a4,2(sp)
     c8c:	00e11123          	sh	a4,2(sp)
     c90:	00211103          	lh	sp,2(sp)
     c94:	000013b7          	lui	t2,0x1
     c98:	22338393          	addi	t2,t2,547 # 1223 <pass+0x22f>
     c9c:	32711e63          	bne	sp,t2,fd8 <fail>
     ca0:	00001117          	auipc	sp,0x1
     ca4:	36010113          	addi	sp,sp,864 # 2000 <__DATA_BEGIN__>
     ca8:	00212423          	sw	sp,8(sp)
     cac:	00812203          	lw	tp,8(sp)
     cb0:	00121123          	sh	ra,2(tp) # 2 <_start+0x2>
     cb4:	32221263          	bne	tp,sp,fd8 <fail>
     cb8:	00221703          	lh	a4,2(tp) # 2 <_start+0x2>
     cbc:	30771e63          	bne	a4,t2,fd8 <fail>

00000cc0 <test_40>:
     cc0:	02800193          	li	gp,40
     cc4:	00001117          	auipc	sp,0x1
     cc8:	33c10113          	addi	sp,sp,828 # 2000 <__DATA_BEGIN__>
     ccc:	000010b7          	lui	ra,0x1
     cd0:	12208093          	addi	ra,ra,290 # 1122 <pass+0x12e>
     cd4:	00111223          	sh	ra,4(sp)
     cd8:	00411703          	lh	a4,4(sp)
     cdc:	00e11223          	sh	a4,4(sp)
     ce0:	00411103          	lh	sp,4(sp)
     ce4:	000013b7          	lui	t2,0x1
     ce8:	12238393          	addi	t2,t2,290 # 1122 <pass+0x12e>
     cec:	2e711663          	bne	sp,t2,fd8 <fail>
     cf0:	00001117          	auipc	sp,0x1
     cf4:	31010113          	addi	sp,sp,784 # 2000 <__DATA_BEGIN__>
     cf8:	00212423          	sw	sp,8(sp)
     cfc:	00812203          	lw	tp,8(sp)
     d00:	00121223          	sh	ra,4(tp) # 4 <trap_vector>
     d04:	2c221a63          	bne	tp,sp,fd8 <fail>
     d08:	00421703          	lh	a4,4(tp) # 4 <trap_vector>
     d0c:	2c771663          	bne	a4,t2,fd8 <fail>

00000d10 <test_41>:
     d10:	02900193          	li	gp,41
     d14:	00001117          	auipc	sp,0x1
     d18:	2ec10113          	addi	sp,sp,748 # 2000 <__DATA_BEGIN__>
     d1c:	11200093          	li	ra,274
     d20:	00111323          	sh	ra,6(sp)
     d24:	00611703          	lh	a4,6(sp)
     d28:	00e11323          	sh	a4,6(sp)
     d2c:	00611103          	lh	sp,6(sp)
     d30:	11200393          	li	t2,274
     d34:	2a711263          	bne	sp,t2,fd8 <fail>
     d38:	00001117          	auipc	sp,0x1
     d3c:	2c810113          	addi	sp,sp,712 # 2000 <__DATA_BEGIN__>
     d40:	00212423          	sw	sp,8(sp)
     d44:	00812203          	lw	tp,8(sp)
     d48:	00121323          	sh	ra,6(tp) # 6 <trap_vector+0x2>
     d4c:	28221663          	bne	tp,sp,fd8 <fail>
     d50:	00621703          	lh	a4,6(tp) # 6 <trap_vector+0x2>
     d54:	28771263          	bne	a4,t2,fd8 <fail>

00000d58 <test_42>:
     d58:	02a00193          	li	gp,42
     d5c:	00001117          	auipc	sp,0x1
     d60:	2a410113          	addi	sp,sp,676 # 2000 <__DATA_BEGIN__>
     d64:	01100093          	li	ra,17
     d68:	00111423          	sh	ra,8(sp)
     d6c:	00811703          	lh	a4,8(sp)
     d70:	00e11423          	sh	a4,8(sp)
     d74:	00811103          	lh	sp,8(sp)
     d78:	01100393          	li	t2,17
     d7c:	24711e63          	bne	sp,t2,fd8 <fail>
     d80:	00001117          	auipc	sp,0x1
     d84:	28010113          	addi	sp,sp,640 # 2000 <__DATA_BEGIN__>
     d88:	00212423          	sw	sp,8(sp)
     d8c:	00812203          	lw	tp,8(sp)
     d90:	00121423          	sh	ra,8(tp) # 8 <trap_vector+0x4>
     d94:	24221263          	bne	tp,sp,fd8 <fail>
     d98:	00821703          	lh	a4,8(tp) # 8 <trap_vector+0x4>
     d9c:	22771e63          	bne	a4,t2,fd8 <fail>

00000da0 <test_43>:
     da0:	02b00193          	li	gp,43
     da4:	00001117          	auipc	sp,0x1
     da8:	25c10113          	addi	sp,sp,604 # 2000 <__DATA_BEGIN__>
     dac:	000030b7          	lui	ra,0x3
     db0:	00108093          	addi	ra,ra,1 # 3001 <__global_pointer$+0x801>
     db4:	00111523          	sh	ra,10(sp)
     db8:	00a11703          	lh	a4,10(sp)
     dbc:	00e11523          	sh	a4,10(sp)
     dc0:	00a11103          	lh	sp,10(sp)
     dc4:	000033b7          	lui	t2,0x3
     dc8:	00138393          	addi	t2,t2,1 # 3001 <__global_pointer$+0x801>
     dcc:	20711663          	bne	sp,t2,fd8 <fail>
     dd0:	00001117          	auipc	sp,0x1
     dd4:	23010113          	addi	sp,sp,560 # 2000 <__DATA_BEGIN__>
     dd8:	00212423          	sw	sp,8(sp)
     ddc:	00812203          	lw	tp,8(sp)
     de0:	00121523          	sh	ra,10(tp) # a <trap_vector+0x6>
     de4:	1e221a63          	bne	tp,sp,fd8 <fail>
     de8:	00a21703          	lh	a4,10(tp) # a <trap_vector+0x6>
     dec:	1e771663          	bne	a4,t2,fd8 <fail>

00000df0 <test_44>:
     df0:	02c00193          	li	gp,44
     df4:	00001117          	auipc	sp,0x1
     df8:	20c10113          	addi	sp,sp,524 # 2000 <__DATA_BEGIN__>
     dfc:	000020b7          	lui	ra,0x2
     e00:	23308093          	addi	ra,ra,563 # 2233 <__BSS_END__+0x16b>
     e04:	00111023          	sh	ra,0(sp)
     e08:	00015703          	lhu	a4,0(sp)
     e0c:	00e11023          	sh	a4,0(sp)
     e10:	00015103          	lhu	sp,0(sp)
     e14:	000023b7          	lui	t2,0x2
     e18:	23338393          	addi	t2,t2,563 # 2233 <__BSS_END__+0x16b>
     e1c:	1a711e63          	bne	sp,t2,fd8 <fail>
     e20:	00001117          	auipc	sp,0x1
     e24:	1e010113          	addi	sp,sp,480 # 2000 <__DATA_BEGIN__>
     e28:	00212423          	sw	sp,8(sp)
     e2c:	00812203          	lw	tp,8(sp)
     e30:	00121023          	sh	ra,0(tp) # 0 <_start>
     e34:	1a221263          	bne	tp,sp,fd8 <fail>
     e38:	00025703          	lhu	a4,0(tp) # 0 <_start>
     e3c:	18771e63          	bne	a4,t2,fd8 <fail>

00000e40 <test_45>:
     e40:	02d00193          	li	gp,45
     e44:	00001117          	auipc	sp,0x1
     e48:	1bc10113          	addi	sp,sp,444 # 2000 <__DATA_BEGIN__>
     e4c:	000010b7          	lui	ra,0x1
     e50:	22308093          	addi	ra,ra,547 # 1223 <pass+0x22f>
     e54:	00111123          	sh	ra,2(sp)
     e58:	00215703          	lhu	a4,2(sp)
     e5c:	00e11123          	sh	a4,2(sp)
     e60:	00215103          	lhu	sp,2(sp)
     e64:	000013b7          	lui	t2,0x1
     e68:	22338393          	addi	t2,t2,547 # 1223 <pass+0x22f>
     e6c:	16711663          	bne	sp,t2,fd8 <fail>
     e70:	00001117          	auipc	sp,0x1
     e74:	19010113          	addi	sp,sp,400 # 2000 <__DATA_BEGIN__>
     e78:	00212423          	sw	sp,8(sp)
     e7c:	00812203          	lw	tp,8(sp)
     e80:	00121123          	sh	ra,2(tp) # 2 <_start+0x2>
     e84:	14221a63          	bne	tp,sp,fd8 <fail>
     e88:	00225703          	lhu	a4,2(tp) # 2 <_start+0x2>
     e8c:	14771663          	bne	a4,t2,fd8 <fail>

00000e90 <test_46>:
     e90:	02e00193          	li	gp,46
     e94:	00001117          	auipc	sp,0x1
     e98:	16c10113          	addi	sp,sp,364 # 2000 <__DATA_BEGIN__>
     e9c:	000010b7          	lui	ra,0x1
     ea0:	12208093          	addi	ra,ra,290 # 1122 <pass+0x12e>
     ea4:	00111223          	sh	ra,4(sp)
     ea8:	00415703          	lhu	a4,4(sp)
     eac:	00e11223          	sh	a4,4(sp)
     eb0:	00415103          	lhu	sp,4(sp)
     eb4:	000013b7          	lui	t2,0x1
     eb8:	12238393          	addi	t2,t2,290 # 1122 <pass+0x12e>
     ebc:	10711e63          	bne	sp,t2,fd8 <fail>
     ec0:	00001117          	auipc	sp,0x1
     ec4:	14010113          	addi	sp,sp,320 # 2000 <__DATA_BEGIN__>
     ec8:	00212423          	sw	sp,8(sp)
     ecc:	00812203          	lw	tp,8(sp)
     ed0:	00121223          	sh	ra,4(tp) # 4 <trap_vector>
     ed4:	10221263          	bne	tp,sp,fd8 <fail>
     ed8:	00425703          	lhu	a4,4(tp) # 4 <trap_vector>
     edc:	0e771e63          	bne	a4,t2,fd8 <fail>

00000ee0 <test_47>:
     ee0:	02f00193          	li	gp,47
     ee4:	00001117          	auipc	sp,0x1
     ee8:	11c10113          	addi	sp,sp,284 # 2000 <__DATA_BEGIN__>
     eec:	11200093          	li	ra,274
     ef0:	00111323          	sh	ra,6(sp)
     ef4:	00615703          	lhu	a4,6(sp)
     ef8:	00e11323          	sh	a4,6(sp)
     efc:	00615103          	lhu	sp,6(sp)
     f00:	11200393          	li	t2,274
     f04:	0c711a63          	bne	sp,t2,fd8 <fail>
     f08:	00001117          	auipc	sp,0x1
     f0c:	0f810113          	addi	sp,sp,248 # 2000 <__DATA_BEGIN__>
     f10:	00212423          	sw	sp,8(sp)
     f14:	00812203          	lw	tp,8(sp)
     f18:	00121323          	sh	ra,6(tp) # 6 <trap_vector+0x2>
     f1c:	0a221e63          	bne	tp,sp,fd8 <fail>
     f20:	00625703          	lhu	a4,6(tp) # 6 <trap_vector+0x2>
     f24:	0a771a63          	bne	a4,t2,fd8 <fail>

00000f28 <test_48>:
     f28:	03000193          	li	gp,48
     f2c:	00001117          	auipc	sp,0x1
     f30:	0d410113          	addi	sp,sp,212 # 2000 <__DATA_BEGIN__>
     f34:	01100093          	li	ra,17
     f38:	00111423          	sh	ra,8(sp)
     f3c:	00815703          	lhu	a4,8(sp)
     f40:	00e11423          	sh	a4,8(sp)
     f44:	00815103          	lhu	sp,8(sp)
     f48:	01100393          	li	t2,17
     f4c:	08711663          	bne	sp,t2,fd8 <fail>
     f50:	00001117          	auipc	sp,0x1
     f54:	0b010113          	addi	sp,sp,176 # 2000 <__DATA_BEGIN__>
     f58:	00212423          	sw	sp,8(sp)
     f5c:	00812203          	lw	tp,8(sp)
     f60:	00121423          	sh	ra,8(tp) # 8 <trap_vector+0x4>
     f64:	06221a63          	bne	tp,sp,fd8 <fail>
     f68:	00825703          	lhu	a4,8(tp) # 8 <trap_vector+0x4>
     f6c:	06771663          	bne	a4,t2,fd8 <fail>

00000f70 <test_49>:
     f70:	03100193          	li	gp,49
     f74:	00001117          	auipc	sp,0x1
     f78:	08c10113          	addi	sp,sp,140 # 2000 <__DATA_BEGIN__>
     f7c:	000030b7          	lui	ra,0x3
     f80:	00108093          	addi	ra,ra,1 # 3001 <__global_pointer$+0x801>
     f84:	00111523          	sh	ra,10(sp)
     f88:	00a15703          	lhu	a4,10(sp)
     f8c:	00e11523          	sh	a4,10(sp)
     f90:	00a15103          	lhu	sp,10(sp)
     f94:	000033b7          	lui	t2,0x3
     f98:	00138393          	addi	t2,t2,1 # 3001 <__global_pointer$+0x801>
     f9c:	02711e63          	bne	sp,t2,fd8 <fail>
     fa0:	00001117          	auipc	sp,0x1
     fa4:	06010113          	addi	sp,sp,96 # 2000 <__DATA_BEGIN__>
     fa8:	00212423          	sw	sp,8(sp)
     fac:	00812203          	lw	tp,8(sp)
     fb0:	00121523          	sh	ra,10(tp) # a <trap_vector+0x6>
     fb4:	02221263          	bne	tp,sp,fd8 <fail>
     fb8:	00a25703          	lhu	a4,10(tp) # a <trap_vector+0x6>
     fbc:	00771e63          	bne	a4,t2,fd8 <fail>
     fc0:	0ef00513          	li	a0,239
     fc4:	00001597          	auipc	a1,0x1
     fc8:	03c58593          	addi	a1,a1,60 # 2000 <__DATA_BEGIN__>
     fcc:	00a581a3          	sb	a0,3(a1)
     fd0:	00358603          	lb	a2,3(a1)
     fd4:	02301063          	bne	zero,gp,ff4 <pass>

00000fd8 <fail>:
     fd8:	0ff0000f          	fence
     fdc:	00018063          	beqz	gp,fdc <fail+0x4>
     fe0:	00119193          	slli	gp,gp,0x1
     fe4:	0011e193          	ori	gp,gp,1
     fe8:	05d00893          	li	a7,93
     fec:	00018513          	mv	a0,gp
     ff0:	00000073          	ecall

00000ff4 <pass>:
     ff4:	0ff0000f          	fence
     ff8:	00100193          	li	gp,1
     ffc:	05d00893          	li	a7,93
    1000:	00000513          	li	a0,0
    1004:	00000073          	ecall
    1008:	c0001073          	unimp
	...
