
/home/thanhtran/fpga/rv32e/tb/riscv-tests/rv32ui/lh.S.v2:     file format elf32-littleriscv


Disassembly of section .text:

00000000 <_start>:
   0:	a825                	j	38 <reset_vector>
   2:	0001                	nop

00000004 <trap_vector>:
   4:	34202f73          	csrr	t5,mcause
   8:	4fa1                	li	t6,8
   a:	03ff0463          	beq	t5,t6,32 <write_tohost>
   e:	4fa5                	li	t6,9
  10:	03ff0163          	beq	t5,t6,32 <write_tohost>
  14:	4fad                	li	t6,11
  16:	01ff0e63          	beq	t5,t6,32 <write_tohost>
  1a:	00000f13          	li	t5,0
  1e:	000f0363          	beqz	t5,24 <trap_vector+0x20>
  22:	8f02                	jr	t5
  24:	34202f73          	csrr	t5,mcause
  28:	000f5363          	bgez	t5,2e <handle_exception>
  2c:	a009                	j	2e <handle_exception>

0000002e <handle_exception>:
  2e:	5391e193          	ori	gp,gp,1337

00000032 <write_tohost>:
  32:	8431a023          	sw	gp,-1984(gp) # 1000040 <tohost>
  36:	bff5                	j	32 <write_tohost>

00000038 <reset_vector>:
  38:	4081                	li	ra,0
  3a:	4101                	li	sp,0
  3c:	4181                	li	gp,0
  3e:	4201                	li	tp,0
  40:	4281                	li	t0,0
  42:	4301                	li	t1,0
  44:	4381                	li	t2,0
  46:	4401                	li	s0,0
  48:	4481                	li	s1,0
  4a:	4501                	li	a0,0
  4c:	4581                	li	a1,0
  4e:	4601                	li	a2,0
  50:	4681                	li	a3,0
  52:	4701                	li	a4,0
  54:	4781                	li	a5,0
  56:	4801                	li	a6,0
  58:	4881                	li	a7,0
  5a:	4901                	li	s2,0
  5c:	4981                	li	s3,0
  5e:	4a01                	li	s4,0
  60:	4a81                	li	s5,0
  62:	4b01                	li	s6,0
  64:	4b81                	li	s7,0
  66:	4c01                	li	s8,0
  68:	4c81                	li	s9,0
  6a:	4d01                	li	s10,0
  6c:	4d81                	li	s11,0
  6e:	4e01                	li	t3,0
  70:	4e81                	li	t4,0
  72:	4f01                	li	t5,0
  74:	4f81                	li	t6,0
  76:	f1402573          	csrr	a0,mhartid
  7a:	e101                	bnez	a0,7a <reset_vector+0x42>
  7c:	00000297          	auipc	t0,0x0
  80:	01028293          	addi	t0,t0,16 # 8c <reset_vector+0x54>
  84:	30529073          	csrw	mtvec,t0
  88:	18005073          	csrwi	satp,0
  8c:	00000297          	auipc	t0,0x0
  90:	01c28293          	addi	t0,t0,28 # a8 <reset_vector+0x70>
  94:	30529073          	csrw	mtvec,t0
  98:	800002b7          	lui	t0,0x80000
  9c:	12fd                	addi	t0,t0,-1 # 7fffffff <__global_pointer$+0x7efff7ff>
  9e:	3b029073          	csrw	pmpaddr0,t0
  a2:	42fd                	li	t0,31
  a4:	3a029073          	csrw	pmpcfg0,t0
  a8:	30405073          	csrwi	mie,0
  ac:	00000297          	auipc	t0,0x0
  b0:	01428293          	addi	t0,t0,20 # c0 <reset_vector+0x88>
  b4:	30529073          	csrw	mtvec,t0
  b8:	30205073          	csrwi	medeleg,0
  bc:	30305073          	csrwi	mideleg,0
  c0:	4181                	li	gp,0
  c2:	00000297          	auipc	t0,0x0
  c6:	f4228293          	addi	t0,t0,-190 # 4 <trap_vector>
  ca:	30529073          	csrw	mtvec,t0
  ce:	4505                	li	a0,1
  d0:	057e                	slli	a0,a0,0x1f
  d2:	00054a63          	bltz	a0,e6 <reset_vector+0xae>
  d6:	0ff0000f          	fence
  da:	4185                	li	gp,1
  dc:	05d00893          	li	a7,93
  e0:	4501                	li	a0,0
  e2:	00000073          	ecall
  e6:	00000293          	li	t0,0
  ea:	00028963          	beqz	t0,fc <reset_vector+0xc4>
  ee:	10529073          	csrw	stvec,t0
  f2:	62ad                	lui	t0,0xb
  f4:	10928293          	addi	t0,t0,265 # b109 <pass+0xadd9>
  f8:	30229073          	csrw	medeleg,t0
  fc:	30005073          	csrwi	mstatus,0
 100:	00000297          	auipc	t0,0x0
 104:	01428293          	addi	t0,t0,20 # 114 <test_2>
 108:	34129073          	csrw	mepc,t0
 10c:	f1402573          	csrr	a0,mhartid
 110:	30200073          	mret

00000114 <test_2>:
 114:	4189                	li	gp,2
 116:	0ff00793          	li	a5,255
 11a:	01000117          	auipc	sp,0x1000
 11e:	ee610113          	addi	sp,sp,-282 # 1000000 <__DATA_BEGIN__>
 122:	00011703          	lh	a4,0(sp)
 126:	0ff00393          	li	t2,255
 12a:	1e771763          	bne	a4,t2,318 <fail>

0000012e <test_3>:
 12e:	418d                	li	gp,3
 130:	f0000793          	li	a5,-256
 134:	01000117          	auipc	sp,0x1000
 138:	ecc10113          	addi	sp,sp,-308 # 1000000 <__DATA_BEGIN__>
 13c:	00211703          	lh	a4,2(sp)
 140:	f0000393          	li	t2,-256
 144:	1c771a63          	bne	a4,t2,318 <fail>

00000148 <test_4>:
 148:	4191                	li	gp,4
 14a:	6785                	lui	a5,0x1
 14c:	17c1                	addi	a5,a5,-16 # ff0 <pass+0xcc0>
 14e:	01000117          	auipc	sp,0x1000
 152:	eb210113          	addi	sp,sp,-334 # 1000000 <__DATA_BEGIN__>
 156:	00411703          	lh	a4,4(sp)
 15a:	6385                	lui	t2,0x1
 15c:	13c1                	addi	t2,t2,-16 # ff0 <pass+0xcc0>
 15e:	1a771d63          	bne	a4,t2,318 <fail>

00000162 <test_5>:
 162:	4195                	li	gp,5
 164:	77fd                	lui	a5,0xfffff
 166:	07bd                	addi	a5,a5,15 # fffff00f <__global_pointer$+0xfeffe80f>
 168:	01000117          	auipc	sp,0x1000
 16c:	e9810113          	addi	sp,sp,-360 # 1000000 <__DATA_BEGIN__>
 170:	00611703          	lh	a4,6(sp)
 174:	73fd                	lui	t2,0xfffff
 176:	03bd                	addi	t2,t2,15 # fffff00f <__global_pointer$+0xfeffe80f>
 178:	1a771063          	bne	a4,t2,318 <fail>

0000017c <test_6>:
 17c:	4199                	li	gp,6
 17e:	0ff00793          	li	a5,255
 182:	01000117          	auipc	sp,0x1000
 186:	e8410113          	addi	sp,sp,-380 # 1000006 <tdat4>
 18a:	ffa11703          	lh	a4,-6(sp)
 18e:	0ff00393          	li	t2,255
 192:	18771363          	bne	a4,t2,318 <fail>

00000196 <test_7>:
 196:	419d                	li	gp,7
 198:	f0000793          	li	a5,-256
 19c:	01000117          	auipc	sp,0x1000
 1a0:	e6a10113          	addi	sp,sp,-406 # 1000006 <tdat4>
 1a4:	ffc11703          	lh	a4,-4(sp)
 1a8:	f0000393          	li	t2,-256
 1ac:	16771663          	bne	a4,t2,318 <fail>

000001b0 <test_8>:
 1b0:	41a1                	li	gp,8
 1b2:	6785                	lui	a5,0x1
 1b4:	17c1                	addi	a5,a5,-16 # ff0 <pass+0xcc0>
 1b6:	01000117          	auipc	sp,0x1000
 1ba:	e5010113          	addi	sp,sp,-432 # 1000006 <tdat4>
 1be:	ffe11703          	lh	a4,-2(sp)
 1c2:	6385                	lui	t2,0x1
 1c4:	13c1                	addi	t2,t2,-16 # ff0 <pass+0xcc0>
 1c6:	14771963          	bne	a4,t2,318 <fail>

000001ca <test_9>:
 1ca:	41a5                	li	gp,9
 1cc:	77fd                	lui	a5,0xfffff
 1ce:	07bd                	addi	a5,a5,15 # fffff00f <__global_pointer$+0xfeffe80f>
 1d0:	01000117          	auipc	sp,0x1000
 1d4:	e3610113          	addi	sp,sp,-458 # 1000006 <tdat4>
 1d8:	00011703          	lh	a4,0(sp)
 1dc:	73fd                	lui	t2,0xfffff
 1de:	03bd                	addi	t2,t2,15 # fffff00f <__global_pointer$+0xfeffe80f>
 1e0:	12771c63          	bne	a4,t2,318 <fail>

000001e4 <test_10>:
 1e4:	41a9                	li	gp,10
 1e6:	01000097          	auipc	ra,0x1000
 1ea:	e1a08093          	addi	ra,ra,-486 # 1000000 <__DATA_BEGIN__>
 1ee:	1081                	addi	ra,ra,-32
 1f0:	02009283          	lh	t0,32(ra)
 1f4:	0ff00393          	li	t2,255
 1f8:	12729063          	bne	t0,t2,318 <fail>

000001fc <test_11>:
 1fc:	41ad                	li	gp,11
 1fe:	01000097          	auipc	ra,0x1000
 202:	e0208093          	addi	ra,ra,-510 # 1000000 <__DATA_BEGIN__>
 206:	10ed                	addi	ra,ra,-5
 208:	00709283          	lh	t0,7(ra)
 20c:	f0000393          	li	t2,-256
 210:	10729463          	bne	t0,t2,318 <fail>

00000214 <test_12>:
 214:	41b1                	li	gp,12
 216:	4201                	li	tp,0
 218:	01000697          	auipc	a3,0x1000
 21c:	dea68693          	addi	a3,a3,-534 # 1000002 <tdat2>
 220:	00269703          	lh	a4,2(a3)
 224:	833a                	mv	t1,a4
 226:	6385                	lui	t2,0x1
 228:	13c1                	addi	t2,t2,-16 # ff0 <pass+0xcc0>
 22a:	0e731763          	bne	t1,t2,318 <fail>
 22e:	0205                	addi	tp,tp,1 # 1 <_start+0x1>
 230:	4289                	li	t0,2
 232:	fe5213e3          	bne	tp,t0,218 <test_12+0x4>

00000236 <test_13>:
 236:	41b5                	li	gp,13
 238:	4201                	li	tp,0
 23a:	01000697          	auipc	a3,0x1000
 23e:	dca68693          	addi	a3,a3,-566 # 1000004 <tdat3>
 242:	00269703          	lh	a4,2(a3)
 246:	0001                	nop
 248:	833a                	mv	t1,a4
 24a:	73fd                	lui	t2,0xfffff
 24c:	03bd                	addi	t2,t2,15 # fffff00f <__global_pointer$+0xfeffe80f>
 24e:	0c731563          	bne	t1,t2,318 <fail>
 252:	0205                	addi	tp,tp,1 # 1 <_start+0x1>
 254:	4289                	li	t0,2
 256:	fe5212e3          	bne	tp,t0,23a <test_13+0x4>

0000025a <test_14>:
 25a:	41b9                	li	gp,14
 25c:	4201                	li	tp,0
 25e:	01000697          	auipc	a3,0x1000
 262:	da268693          	addi	a3,a3,-606 # 1000000 <__DATA_BEGIN__>
 266:	00269703          	lh	a4,2(a3)
 26a:	0001                	nop
 26c:	0001                	nop
 26e:	833a                	mv	t1,a4
 270:	f0000393          	li	t2,-256
 274:	0a731263          	bne	t1,t2,318 <fail>
 278:	0205                	addi	tp,tp,1 # 1 <_start+0x1>
 27a:	4289                	li	t0,2
 27c:	fe5211e3          	bne	tp,t0,25e <test_14+0x4>

00000280 <test_15>:
 280:	41bd                	li	gp,15
 282:	4201                	li	tp,0
 284:	01000697          	auipc	a3,0x1000
 288:	d7e68693          	addi	a3,a3,-642 # 1000002 <tdat2>
 28c:	00269703          	lh	a4,2(a3)
 290:	6385                	lui	t2,0x1
 292:	13c1                	addi	t2,t2,-16 # ff0 <pass+0xcc0>
 294:	08771263          	bne	a4,t2,318 <fail>
 298:	0205                	addi	tp,tp,1 # 1 <_start+0x1>
 29a:	4289                	li	t0,2
 29c:	fe5214e3          	bne	tp,t0,284 <test_15+0x4>

000002a0 <test_16>:
 2a0:	41c1                	li	gp,16
 2a2:	4201                	li	tp,0
 2a4:	01000697          	auipc	a3,0x1000
 2a8:	d6068693          	addi	a3,a3,-672 # 1000004 <tdat3>
 2ac:	0001                	nop
 2ae:	00269703          	lh	a4,2(a3)
 2b2:	73fd                	lui	t2,0xfffff
 2b4:	03bd                	addi	t2,t2,15 # fffff00f <__global_pointer$+0xfeffe80f>
 2b6:	06771163          	bne	a4,t2,318 <fail>
 2ba:	0205                	addi	tp,tp,1 # 1 <_start+0x1>
 2bc:	4289                	li	t0,2
 2be:	fe5213e3          	bne	tp,t0,2a4 <test_16+0x4>

000002c2 <test_17>:
 2c2:	41c5                	li	gp,17
 2c4:	4201                	li	tp,0
 2c6:	01000697          	auipc	a3,0x1000
 2ca:	d3a68693          	addi	a3,a3,-710 # 1000000 <__DATA_BEGIN__>
 2ce:	0001                	nop
 2d0:	0001                	nop
 2d2:	00269703          	lh	a4,2(a3)
 2d6:	f0000393          	li	t2,-256
 2da:	02771f63          	bne	a4,t2,318 <fail>
 2de:	0205                	addi	tp,tp,1 # 1 <_start+0x1>
 2e0:	4289                	li	t0,2
 2e2:	fe5212e3          	bne	tp,t0,2c6 <test_17+0x4>

000002e6 <test_18>:
 2e6:	41c9                	li	gp,18
 2e8:	01000297          	auipc	t0,0x1000
 2ec:	d1828293          	addi	t0,t0,-744 # 1000000 <__DATA_BEGIN__>
 2f0:	00029103          	lh	sp,0(t0)
 2f4:	4109                	li	sp,2
 2f6:	4389                	li	t2,2
 2f8:	02711063          	bne	sp,t2,318 <fail>

000002fc <test_19>:
 2fc:	41cd                	li	gp,19
 2fe:	01000297          	auipc	t0,0x1000
 302:	d0228293          	addi	t0,t0,-766 # 1000000 <__DATA_BEGIN__>
 306:	00029103          	lh	sp,0(t0)
 30a:	0001                	nop
 30c:	4109                	li	sp,2
 30e:	4389                	li	t2,2
 310:	00711463          	bne	sp,t2,318 <fail>
 314:	00301e63          	bne	zero,gp,330 <pass>

00000318 <fail>:
 318:	0ff0000f          	fence
 31c:	00018063          	beqz	gp,31c <fail+0x4>
 320:	0186                	slli	gp,gp,0x1
 322:	0011e193          	ori	gp,gp,1
 326:	05d00893          	li	a7,93
 32a:	850e                	mv	a0,gp
 32c:	00000073          	ecall

00000330 <pass>:
 330:	0ff0000f          	fence
 334:	4185                	li	gp,1
 336:	05d00893          	li	a7,93
 33a:	4501                	li	a0,0
 33c:	00000073          	ecall
	...
