
/home/thanhtran/fpga/RV32E/tb/riscv-tests/rv32ui/lh.S.v2:     file format elf32-littleriscv


Disassembly of section .text:

00000000 <_start>:
   0:	0440006f          	j	44 <reset_vector>

00000004 <trap_vector>:
   4:	34202f73          	csrr	t5,mcause
   8:	00800f93          	li	t6,8
   c:	03ff0863          	beq	t5,t6,3c <write_tohost>
  10:	00900f93          	li	t6,9
  14:	03ff0463          	beq	t5,t6,3c <write_tohost>
  18:	00b00f93          	li	t6,11
  1c:	03ff0063          	beq	t5,t6,3c <write_tohost>
  20:	00000f13          	li	t5,0
  24:	000f0463          	beqz	t5,2c <trap_vector+0x28>
  28:	000f0067          	jr	t5
  2c:	34202f73          	csrr	t5,mcause
  30:	000f5463          	bgez	t5,38 <handle_exception>
  34:	0040006f          	j	38 <handle_exception>

00000038 <handle_exception>:
  38:	5391e193          	ori	gp,gp,1337

0000003c <write_tohost>:
  3c:	8431a023          	sw	gp,-1984(gp) # 2040 <tohost>
  40:	ffdff06f          	j	3c <write_tohost>

00000044 <reset_vector>:
  44:	00000093          	li	ra,0
  48:	00000113          	li	sp,0
  4c:	00000193          	li	gp,0
  50:	00000213          	li	tp,0
  54:	00000293          	li	t0,0
  58:	00000313          	li	t1,0
  5c:	00000393          	li	t2,0
  60:	00000413          	li	s0,0
  64:	00000493          	li	s1,0
  68:	00000513          	li	a0,0
  6c:	00000593          	li	a1,0
  70:	00000613          	li	a2,0
  74:	00000693          	li	a3,0
  78:	00000713          	li	a4,0
  7c:	00000793          	li	a5,0
  80:	00000813          	li	a6,0
  84:	00000893          	li	a7,0
  88:	00000913          	li	s2,0
  8c:	00000993          	li	s3,0
  90:	00000a13          	li	s4,0
  94:	00000a93          	li	s5,0
  98:	00000b13          	li	s6,0
  9c:	00000b93          	li	s7,0
  a0:	00000c13          	li	s8,0
  a4:	00000c93          	li	s9,0
  a8:	00000d13          	li	s10,0
  ac:	00000d93          	li	s11,0
  b0:	00000e13          	li	t3,0
  b4:	00000e93          	li	t4,0
  b8:	00000f13          	li	t5,0
  bc:	00000f93          	li	t6,0
  c0:	f1402573          	csrr	a0,mhartid
  c4:	00051063          	bnez	a0,c4 <reset_vector+0x80>
  c8:	00000297          	auipc	t0,0x0
  cc:	01028293          	addi	t0,t0,16 # d8 <reset_vector+0x94>
  d0:	30529073          	csrw	mtvec,t0
  d4:	18005073          	csrwi	satp,0
  d8:	00000297          	auipc	t0,0x0
  dc:	02028293          	addi	t0,t0,32 # f8 <reset_vector+0xb4>
  e0:	30529073          	csrw	mtvec,t0
  e4:	800002b7          	lui	t0,0x80000
  e8:	fff28293          	addi	t0,t0,-1 # 7fffffff <__global_pointer$+0x7fffd7ff>
  ec:	3b029073          	csrw	pmpaddr0,t0
  f0:	01f00293          	li	t0,31
  f4:	3a029073          	csrw	pmpcfg0,t0
  f8:	30405073          	csrwi	mie,0
  fc:	00000297          	auipc	t0,0x0
 100:	01428293          	addi	t0,t0,20 # 110 <reset_vector+0xcc>
 104:	30529073          	csrw	mtvec,t0
 108:	30205073          	csrwi	medeleg,0
 10c:	30305073          	csrwi	mideleg,0
 110:	00000193          	li	gp,0
 114:	00000297          	auipc	t0,0x0
 118:	ef028293          	addi	t0,t0,-272 # 4 <trap_vector>
 11c:	30529073          	csrw	mtvec,t0
 120:	00100513          	li	a0,1
 124:	01f51513          	slli	a0,a0,0x1f
 128:	00054c63          	bltz	a0,140 <reset_vector+0xfc>
 12c:	0ff0000f          	fence
 130:	00100193          	li	gp,1
 134:	05d00893          	li	a7,93
 138:	00000513          	li	a0,0
 13c:	00000073          	ecall
 140:	00000293          	li	t0,0
 144:	00028a63          	beqz	t0,158 <reset_vector+0x114>
 148:	10529073          	csrw	stvec,t0
 14c:	0000b2b7          	lui	t0,0xb
 150:	10928293          	addi	t0,t0,265 # b109 <__global_pointer$+0x8909>
 154:	30229073          	csrw	medeleg,t0
 158:	30005073          	csrwi	mstatus,0
 15c:	00000297          	auipc	t0,0x0
 160:	01428293          	addi	t0,t0,20 # 170 <test_2>
 164:	34129073          	csrw	mepc,t0
 168:	f1402573          	csrr	a0,mhartid
 16c:	30200073          	mret

00000170 <test_2>:
 170:	00200193          	li	gp,2
 174:	0ff00793          	li	a5,255
 178:	00002117          	auipc	sp,0x2
 17c:	e8810113          	addi	sp,sp,-376 # 2000 <__DATA_BEGIN__>
 180:	00011703          	lh	a4,0(sp)
 184:	0ff00393          	li	t2,255
 188:	28771263          	bne	a4,t2,40c <fail>

0000018c <test_3>:
 18c:	00300193          	li	gp,3
 190:	f0000793          	li	a5,-256
 194:	00002117          	auipc	sp,0x2
 198:	e6c10113          	addi	sp,sp,-404 # 2000 <__DATA_BEGIN__>
 19c:	00211703          	lh	a4,2(sp)
 1a0:	f0000393          	li	t2,-256
 1a4:	26771463          	bne	a4,t2,40c <fail>

000001a8 <test_4>:
 1a8:	00400193          	li	gp,4
 1ac:	000017b7          	lui	a5,0x1
 1b0:	ff078793          	addi	a5,a5,-16 # ff0 <pass+0xbc8>
 1b4:	00002117          	auipc	sp,0x2
 1b8:	e4c10113          	addi	sp,sp,-436 # 2000 <__DATA_BEGIN__>
 1bc:	00411703          	lh	a4,4(sp)
 1c0:	000013b7          	lui	t2,0x1
 1c4:	ff038393          	addi	t2,t2,-16 # ff0 <pass+0xbc8>
 1c8:	24771263          	bne	a4,t2,40c <fail>

000001cc <test_5>:
 1cc:	00500193          	li	gp,5
 1d0:	fffff7b7          	lui	a5,0xfffff
 1d4:	00f78793          	addi	a5,a5,15 # fffff00f <__global_pointer$+0xffffc80f>
 1d8:	00002117          	auipc	sp,0x2
 1dc:	e2810113          	addi	sp,sp,-472 # 2000 <__DATA_BEGIN__>
 1e0:	00611703          	lh	a4,6(sp)
 1e4:	fffff3b7          	lui	t2,0xfffff
 1e8:	00f38393          	addi	t2,t2,15 # fffff00f <__global_pointer$+0xffffc80f>
 1ec:	22771063          	bne	a4,t2,40c <fail>

000001f0 <test_6>:
 1f0:	00600193          	li	gp,6
 1f4:	0ff00793          	li	a5,255
 1f8:	00002117          	auipc	sp,0x2
 1fc:	e0e10113          	addi	sp,sp,-498 # 2006 <tdat4>
 200:	ffa11703          	lh	a4,-6(sp)
 204:	0ff00393          	li	t2,255
 208:	20771263          	bne	a4,t2,40c <fail>

0000020c <test_7>:
 20c:	00700193          	li	gp,7
 210:	f0000793          	li	a5,-256
 214:	00002117          	auipc	sp,0x2
 218:	df210113          	addi	sp,sp,-526 # 2006 <tdat4>
 21c:	ffc11703          	lh	a4,-4(sp)
 220:	f0000393          	li	t2,-256
 224:	1e771463          	bne	a4,t2,40c <fail>

00000228 <test_8>:
 228:	00800193          	li	gp,8
 22c:	000017b7          	lui	a5,0x1
 230:	ff078793          	addi	a5,a5,-16 # ff0 <pass+0xbc8>
 234:	00002117          	auipc	sp,0x2
 238:	dd210113          	addi	sp,sp,-558 # 2006 <tdat4>
 23c:	ffe11703          	lh	a4,-2(sp)
 240:	000013b7          	lui	t2,0x1
 244:	ff038393          	addi	t2,t2,-16 # ff0 <pass+0xbc8>
 248:	1c771263          	bne	a4,t2,40c <fail>

0000024c <test_9>:
 24c:	00900193          	li	gp,9
 250:	fffff7b7          	lui	a5,0xfffff
 254:	00f78793          	addi	a5,a5,15 # fffff00f <__global_pointer$+0xffffc80f>
 258:	00002117          	auipc	sp,0x2
 25c:	dae10113          	addi	sp,sp,-594 # 2006 <tdat4>
 260:	00011703          	lh	a4,0(sp)
 264:	fffff3b7          	lui	t2,0xfffff
 268:	00f38393          	addi	t2,t2,15 # fffff00f <__global_pointer$+0xffffc80f>
 26c:	1a771063          	bne	a4,t2,40c <fail>

00000270 <test_10>:
 270:	00a00193          	li	gp,10
 274:	00002097          	auipc	ra,0x2
 278:	d8c08093          	addi	ra,ra,-628 # 2000 <__DATA_BEGIN__>
 27c:	fe008093          	addi	ra,ra,-32
 280:	02009283          	lh	t0,32(ra)
 284:	0ff00393          	li	t2,255
 288:	18729263          	bne	t0,t2,40c <fail>

0000028c <test_11>:
 28c:	00b00193          	li	gp,11
 290:	00002097          	auipc	ra,0x2
 294:	d7008093          	addi	ra,ra,-656 # 2000 <__DATA_BEGIN__>
 298:	ffb08093          	addi	ra,ra,-5
 29c:	00709283          	lh	t0,7(ra)
 2a0:	f0000393          	li	t2,-256
 2a4:	16729463          	bne	t0,t2,40c <fail>

000002a8 <test_12>:
 2a8:	00c00193          	li	gp,12
 2ac:	00000213          	li	tp,0
 2b0:	00002697          	auipc	a3,0x2
 2b4:	d5268693          	addi	a3,a3,-686 # 2002 <tdat2>
 2b8:	00269703          	lh	a4,2(a3)
 2bc:	00070313          	mv	t1,a4
 2c0:	000013b7          	lui	t2,0x1
 2c4:	ff038393          	addi	t2,t2,-16 # ff0 <pass+0xbc8>
 2c8:	14731263          	bne	t1,t2,40c <fail>
 2cc:	00120213          	addi	tp,tp,1 # 1 <_start+0x1>
 2d0:	00200293          	li	t0,2
 2d4:	fc521ee3          	bne	tp,t0,2b0 <test_12+0x8>

000002d8 <test_13>:
 2d8:	00d00193          	li	gp,13
 2dc:	00000213          	li	tp,0
 2e0:	00002697          	auipc	a3,0x2
 2e4:	d2468693          	addi	a3,a3,-732 # 2004 <tdat3>
 2e8:	00269703          	lh	a4,2(a3)
 2ec:	00000013          	nop
 2f0:	00070313          	mv	t1,a4
 2f4:	fffff3b7          	lui	t2,0xfffff
 2f8:	00f38393          	addi	t2,t2,15 # fffff00f <__global_pointer$+0xffffc80f>
 2fc:	10731863          	bne	t1,t2,40c <fail>
 300:	00120213          	addi	tp,tp,1 # 1 <_start+0x1>
 304:	00200293          	li	t0,2
 308:	fc521ce3          	bne	tp,t0,2e0 <test_13+0x8>

0000030c <test_14>:
 30c:	00e00193          	li	gp,14
 310:	00000213          	li	tp,0
 314:	00002697          	auipc	a3,0x2
 318:	cec68693          	addi	a3,a3,-788 # 2000 <__DATA_BEGIN__>
 31c:	00269703          	lh	a4,2(a3)
 320:	00000013          	nop
 324:	00000013          	nop
 328:	00070313          	mv	t1,a4
 32c:	f0000393          	li	t2,-256
 330:	0c731e63          	bne	t1,t2,40c <fail>
 334:	00120213          	addi	tp,tp,1 # 1 <_start+0x1>
 338:	00200293          	li	t0,2
 33c:	fc521ce3          	bne	tp,t0,314 <test_14+0x8>

00000340 <test_15>:
 340:	00f00193          	li	gp,15
 344:	00000213          	li	tp,0
 348:	00002697          	auipc	a3,0x2
 34c:	cba68693          	addi	a3,a3,-838 # 2002 <tdat2>
 350:	00269703          	lh	a4,2(a3)
 354:	000013b7          	lui	t2,0x1
 358:	ff038393          	addi	t2,t2,-16 # ff0 <pass+0xbc8>
 35c:	0a771863          	bne	a4,t2,40c <fail>
 360:	00120213          	addi	tp,tp,1 # 1 <_start+0x1>
 364:	00200293          	li	t0,2
 368:	fe5210e3          	bne	tp,t0,348 <test_15+0x8>

0000036c <test_16>:
 36c:	01000193          	li	gp,16
 370:	00000213          	li	tp,0
 374:	00002697          	auipc	a3,0x2
 378:	c9068693          	addi	a3,a3,-880 # 2004 <tdat3>
 37c:	00000013          	nop
 380:	00269703          	lh	a4,2(a3)
 384:	fffff3b7          	lui	t2,0xfffff
 388:	00f38393          	addi	t2,t2,15 # fffff00f <__global_pointer$+0xffffc80f>
 38c:	08771063          	bne	a4,t2,40c <fail>
 390:	00120213          	addi	tp,tp,1 # 1 <_start+0x1>
 394:	00200293          	li	t0,2
 398:	fc521ee3          	bne	tp,t0,374 <test_16+0x8>

0000039c <test_17>:
 39c:	01100193          	li	gp,17
 3a0:	00000213          	li	tp,0
 3a4:	00002697          	auipc	a3,0x2
 3a8:	c5c68693          	addi	a3,a3,-932 # 2000 <__DATA_BEGIN__>
 3ac:	00000013          	nop
 3b0:	00000013          	nop
 3b4:	00269703          	lh	a4,2(a3)
 3b8:	f0000393          	li	t2,-256
 3bc:	04771863          	bne	a4,t2,40c <fail>
 3c0:	00120213          	addi	tp,tp,1 # 1 <_start+0x1>
 3c4:	00200293          	li	t0,2
 3c8:	fc521ee3          	bne	tp,t0,3a4 <test_17+0x8>

000003cc <test_18>:
 3cc:	01200193          	li	gp,18
 3d0:	00002297          	auipc	t0,0x2
 3d4:	c3028293          	addi	t0,t0,-976 # 2000 <__DATA_BEGIN__>
 3d8:	00029103          	lh	sp,0(t0)
 3dc:	00200113          	li	sp,2
 3e0:	00200393          	li	t2,2
 3e4:	02711463          	bne	sp,t2,40c <fail>

000003e8 <test_19>:
 3e8:	01300193          	li	gp,19
 3ec:	00002297          	auipc	t0,0x2
 3f0:	c1428293          	addi	t0,t0,-1004 # 2000 <__DATA_BEGIN__>
 3f4:	00029103          	lh	sp,0(t0)
 3f8:	00000013          	nop
 3fc:	00200113          	li	sp,2
 400:	00200393          	li	t2,2
 404:	00711463          	bne	sp,t2,40c <fail>
 408:	02301063          	bne	zero,gp,428 <pass>

0000040c <fail>:
 40c:	0ff0000f          	fence
 410:	00018063          	beqz	gp,410 <fail+0x4>
 414:	00119193          	slli	gp,gp,0x1
 418:	0011e193          	ori	gp,gp,1
 41c:	05d00893          	li	a7,93
 420:	00018513          	mv	a0,gp
 424:	00000073          	ecall

00000428 <pass>:
 428:	0ff0000f          	fence
 42c:	00100193          	li	gp,1
 430:	05d00893          	li	a7,93
 434:	00000513          	li	a0,0
 438:	00000073          	ecall
 43c:	c0001073          	unimp
	...
