
/home/thanhtran/fpga/rv32e/tb/riscv-tests/rv32ui/lhu.S.v2:     file format elf32-littleriscv


Disassembly of section .text:

00000000 <_start>:
   0:	a825                	j	38 <reset_vector>
   2:	0001                	nop

00000004 <trap_vector>:
   4:	34202f73          	csrr	t5,mcause
   8:	4fa1                	li	t6,8
   a:	03ff0463          	beq	t5,t6,32 <write_tohost>
   e:	4fa5                	li	t6,9
  10:	03ff0163          	beq	t5,t6,32 <write_tohost>
  14:	4fad                	li	t6,11
  16:	01ff0e63          	beq	t5,t6,32 <write_tohost>
  1a:	00000f13          	li	t5,0
  1e:	000f0363          	beqz	t5,24 <trap_vector+0x20>
  22:	8f02                	jr	t5
  24:	34202f73          	csrr	t5,mcause
  28:	000f5363          	bgez	t5,2e <handle_exception>
  2c:	a009                	j	2e <handle_exception>

0000002e <handle_exception>:
  2e:	5391e193          	ori	gp,gp,1337

00000032 <write_tohost>:
  32:	8431a023          	sw	gp,-1984(gp) # 1000040 <tohost>
  36:	bff5                	j	32 <write_tohost>

00000038 <reset_vector>:
  38:	4081                	li	ra,0
  3a:	4101                	li	sp,0
  3c:	4181                	li	gp,0
  3e:	4201                	li	tp,0
  40:	4281                	li	t0,0
  42:	4301                	li	t1,0
  44:	4381                	li	t2,0
  46:	4401                	li	s0,0
  48:	4481                	li	s1,0
  4a:	4501                	li	a0,0
  4c:	4581                	li	a1,0
  4e:	4601                	li	a2,0
  50:	4681                	li	a3,0
  52:	4701                	li	a4,0
  54:	4781                	li	a5,0
  56:	4801                	li	a6,0
  58:	4881                	li	a7,0
  5a:	4901                	li	s2,0
  5c:	4981                	li	s3,0
  5e:	4a01                	li	s4,0
  60:	4a81                	li	s5,0
  62:	4b01                	li	s6,0
  64:	4b81                	li	s7,0
  66:	4c01                	li	s8,0
  68:	4c81                	li	s9,0
  6a:	4d01                	li	s10,0
  6c:	4d81                	li	s11,0
  6e:	4e01                	li	t3,0
  70:	4e81                	li	t4,0
  72:	4f01                	li	t5,0
  74:	4f81                	li	t6,0
  76:	f1402573          	csrr	a0,mhartid
  7a:	e101                	bnez	a0,7a <reset_vector+0x42>
  7c:	00000297          	auipc	t0,0x0
  80:	01028293          	addi	t0,t0,16 # 8c <reset_vector+0x54>
  84:	30529073          	csrw	mtvec,t0
  88:	18005073          	csrwi	satp,0
  8c:	00000297          	auipc	t0,0x0
  90:	01c28293          	addi	t0,t0,28 # a8 <reset_vector+0x70>
  94:	30529073          	csrw	mtvec,t0
  98:	800002b7          	lui	t0,0x80000
  9c:	12fd                	addi	t0,t0,-1 # 7fffffff <__global_pointer$+0x7efff7ff>
  9e:	3b029073          	csrw	pmpaddr0,t0
  a2:	42fd                	li	t0,31
  a4:	3a029073          	csrw	pmpcfg0,t0
  a8:	30405073          	csrwi	mie,0
  ac:	00000297          	auipc	t0,0x0
  b0:	01428293          	addi	t0,t0,20 # c0 <reset_vector+0x88>
  b4:	30529073          	csrw	mtvec,t0
  b8:	30205073          	csrwi	medeleg,0
  bc:	30305073          	csrwi	mideleg,0
  c0:	4181                	li	gp,0
  c2:	00000297          	auipc	t0,0x0
  c6:	f4228293          	addi	t0,t0,-190 # 4 <trap_vector>
  ca:	30529073          	csrw	mtvec,t0
  ce:	4505                	li	a0,1
  d0:	057e                	slli	a0,a0,0x1f
  d2:	00054a63          	bltz	a0,e6 <reset_vector+0xae>
  d6:	0ff0000f          	fence
  da:	4185                	li	gp,1
  dc:	05d00893          	li	a7,93
  e0:	4501                	li	a0,0
  e2:	00000073          	ecall
  e6:	00000293          	li	t0,0
  ea:	00028963          	beqz	t0,fc <reset_vector+0xc4>
  ee:	10529073          	csrw	stvec,t0
  f2:	62ad                	lui	t0,0xb
  f4:	10928293          	addi	t0,t0,265 # b109 <pass+0xadcb>
  f8:	30229073          	csrw	medeleg,t0
  fc:	30005073          	csrwi	mstatus,0
 100:	00000297          	auipc	t0,0x0
 104:	01428293          	addi	t0,t0,20 # 114 <test_2>
 108:	34129073          	csrw	mepc,t0
 10c:	f1402573          	csrr	a0,mhartid
 110:	30200073          	mret

00000114 <test_2>:
 114:	4189                	li	gp,2
 116:	0ff00793          	li	a5,255
 11a:	01000117          	auipc	sp,0x1000
 11e:	ee610113          	addi	sp,sp,-282 # 1000000 <__DATA_BEGIN__>
 122:	00015703          	lhu	a4,0(sp)
 126:	0ff00393          	li	t2,255
 12a:	1e771e63          	bne	a4,t2,326 <fail>

0000012e <test_3>:
 12e:	418d                	li	gp,3
 130:	67c1                	lui	a5,0x10
 132:	f0078793          	addi	a5,a5,-256 # ff00 <pass+0xfbc2>
 136:	01000117          	auipc	sp,0x1000
 13a:	eca10113          	addi	sp,sp,-310 # 1000000 <__DATA_BEGIN__>
 13e:	00215703          	lhu	a4,2(sp)
 142:	63c1                	lui	t2,0x10
 144:	f0038393          	addi	t2,t2,-256 # ff00 <pass+0xfbc2>
 148:	1c771f63          	bne	a4,t2,326 <fail>

0000014c <test_4>:
 14c:	4191                	li	gp,4
 14e:	6785                	lui	a5,0x1
 150:	17c1                	addi	a5,a5,-16 # ff0 <pass+0xcb2>
 152:	01000117          	auipc	sp,0x1000
 156:	eae10113          	addi	sp,sp,-338 # 1000000 <__DATA_BEGIN__>
 15a:	00415703          	lhu	a4,4(sp)
 15e:	6385                	lui	t2,0x1
 160:	13c1                	addi	t2,t2,-16 # ff0 <pass+0xcb2>
 162:	1c771263          	bne	a4,t2,326 <fail>

00000166 <test_5>:
 166:	4195                	li	gp,5
 168:	67bd                	lui	a5,0xf
 16a:	07bd                	addi	a5,a5,15 # f00f <pass+0xecd1>
 16c:	01000117          	auipc	sp,0x1000
 170:	e9410113          	addi	sp,sp,-364 # 1000000 <__DATA_BEGIN__>
 174:	00615703          	lhu	a4,6(sp)
 178:	63bd                	lui	t2,0xf
 17a:	03bd                	addi	t2,t2,15 # f00f <pass+0xecd1>
 17c:	1a771563          	bne	a4,t2,326 <fail>

00000180 <test_6>:
 180:	4199                	li	gp,6
 182:	0ff00793          	li	a5,255
 186:	01000117          	auipc	sp,0x1000
 18a:	e8010113          	addi	sp,sp,-384 # 1000006 <tdat4>
 18e:	ffa15703          	lhu	a4,-6(sp)
 192:	0ff00393          	li	t2,255
 196:	18771863          	bne	a4,t2,326 <fail>

0000019a <test_7>:
 19a:	419d                	li	gp,7
 19c:	67c1                	lui	a5,0x10
 19e:	f0078793          	addi	a5,a5,-256 # ff00 <pass+0xfbc2>
 1a2:	01000117          	auipc	sp,0x1000
 1a6:	e6410113          	addi	sp,sp,-412 # 1000006 <tdat4>
 1aa:	ffc15703          	lhu	a4,-4(sp)
 1ae:	63c1                	lui	t2,0x10
 1b0:	f0038393          	addi	t2,t2,-256 # ff00 <pass+0xfbc2>
 1b4:	16771963          	bne	a4,t2,326 <fail>

000001b8 <test_8>:
 1b8:	41a1                	li	gp,8
 1ba:	6785                	lui	a5,0x1
 1bc:	17c1                	addi	a5,a5,-16 # ff0 <pass+0xcb2>
 1be:	01000117          	auipc	sp,0x1000
 1c2:	e4810113          	addi	sp,sp,-440 # 1000006 <tdat4>
 1c6:	ffe15703          	lhu	a4,-2(sp)
 1ca:	6385                	lui	t2,0x1
 1cc:	13c1                	addi	t2,t2,-16 # ff0 <pass+0xcb2>
 1ce:	14771c63          	bne	a4,t2,326 <fail>

000001d2 <test_9>:
 1d2:	41a5                	li	gp,9
 1d4:	67bd                	lui	a5,0xf
 1d6:	07bd                	addi	a5,a5,15 # f00f <pass+0xecd1>
 1d8:	01000117          	auipc	sp,0x1000
 1dc:	e2e10113          	addi	sp,sp,-466 # 1000006 <tdat4>
 1e0:	00015703          	lhu	a4,0(sp)
 1e4:	63bd                	lui	t2,0xf
 1e6:	03bd                	addi	t2,t2,15 # f00f <pass+0xecd1>
 1e8:	12771f63          	bne	a4,t2,326 <fail>

000001ec <test_10>:
 1ec:	41a9                	li	gp,10
 1ee:	01000097          	auipc	ra,0x1000
 1f2:	e1208093          	addi	ra,ra,-494 # 1000000 <__DATA_BEGIN__>
 1f6:	1081                	addi	ra,ra,-32
 1f8:	0200d283          	lhu	t0,32(ra)
 1fc:	0ff00393          	li	t2,255
 200:	12729363          	bne	t0,t2,326 <fail>

00000204 <test_11>:
 204:	41ad                	li	gp,11
 206:	01000097          	auipc	ra,0x1000
 20a:	dfa08093          	addi	ra,ra,-518 # 1000000 <__DATA_BEGIN__>
 20e:	10ed                	addi	ra,ra,-5
 210:	0070d283          	lhu	t0,7(ra)
 214:	63c1                	lui	t2,0x10
 216:	f0038393          	addi	t2,t2,-256 # ff00 <pass+0xfbc2>
 21a:	10729663          	bne	t0,t2,326 <fail>

0000021e <test_12>:
 21e:	41b1                	li	gp,12
 220:	4201                	li	tp,0
 222:	01000697          	auipc	a3,0x1000
 226:	de068693          	addi	a3,a3,-544 # 1000002 <tdat2>
 22a:	0026d703          	lhu	a4,2(a3)
 22e:	833a                	mv	t1,a4
 230:	6385                	lui	t2,0x1
 232:	13c1                	addi	t2,t2,-16 # ff0 <pass+0xcb2>
 234:	0e731963          	bne	t1,t2,326 <fail>
 238:	0205                	addi	tp,tp,1 # 1 <_start+0x1>
 23a:	4289                	li	t0,2
 23c:	fe5213e3          	bne	tp,t0,222 <test_12+0x4>

00000240 <test_13>:
 240:	41b5                	li	gp,13
 242:	4201                	li	tp,0
 244:	01000697          	auipc	a3,0x1000
 248:	dc068693          	addi	a3,a3,-576 # 1000004 <tdat3>
 24c:	0026d703          	lhu	a4,2(a3)
 250:	0001                	nop
 252:	833a                	mv	t1,a4
 254:	63bd                	lui	t2,0xf
 256:	03bd                	addi	t2,t2,15 # f00f <pass+0xecd1>
 258:	0c731763          	bne	t1,t2,326 <fail>
 25c:	0205                	addi	tp,tp,1 # 1 <_start+0x1>
 25e:	4289                	li	t0,2
 260:	fe5212e3          	bne	tp,t0,244 <test_13+0x4>

00000264 <test_14>:
 264:	41b9                	li	gp,14
 266:	4201                	li	tp,0
 268:	01000697          	auipc	a3,0x1000
 26c:	d9868693          	addi	a3,a3,-616 # 1000000 <__DATA_BEGIN__>
 270:	0026d703          	lhu	a4,2(a3)
 274:	0001                	nop
 276:	0001                	nop
 278:	833a                	mv	t1,a4
 27a:	63c1                	lui	t2,0x10
 27c:	f0038393          	addi	t2,t2,-256 # ff00 <pass+0xfbc2>
 280:	0a731363          	bne	t1,t2,326 <fail>
 284:	0205                	addi	tp,tp,1 # 1 <_start+0x1>
 286:	4289                	li	t0,2
 288:	fe5210e3          	bne	tp,t0,268 <test_14+0x4>

0000028c <test_15>:
 28c:	41bd                	li	gp,15
 28e:	4201                	li	tp,0
 290:	01000697          	auipc	a3,0x1000
 294:	d7268693          	addi	a3,a3,-654 # 1000002 <tdat2>
 298:	0026d703          	lhu	a4,2(a3)
 29c:	6385                	lui	t2,0x1
 29e:	13c1                	addi	t2,t2,-16 # ff0 <pass+0xcb2>
 2a0:	08771363          	bne	a4,t2,326 <fail>
 2a4:	0205                	addi	tp,tp,1 # 1 <_start+0x1>
 2a6:	4289                	li	t0,2
 2a8:	fe5214e3          	bne	tp,t0,290 <test_15+0x4>

000002ac <test_16>:
 2ac:	41c1                	li	gp,16
 2ae:	4201                	li	tp,0
 2b0:	01000697          	auipc	a3,0x1000
 2b4:	d5468693          	addi	a3,a3,-684 # 1000004 <tdat3>
 2b8:	0001                	nop
 2ba:	0026d703          	lhu	a4,2(a3)
 2be:	63bd                	lui	t2,0xf
 2c0:	03bd                	addi	t2,t2,15 # f00f <pass+0xecd1>
 2c2:	06771263          	bne	a4,t2,326 <fail>
 2c6:	0205                	addi	tp,tp,1 # 1 <_start+0x1>
 2c8:	4289                	li	t0,2
 2ca:	fe5213e3          	bne	tp,t0,2b0 <test_16+0x4>

000002ce <test_17>:
 2ce:	41c5                	li	gp,17
 2d0:	4201                	li	tp,0
 2d2:	01000697          	auipc	a3,0x1000
 2d6:	d2e68693          	addi	a3,a3,-722 # 1000000 <__DATA_BEGIN__>
 2da:	0001                	nop
 2dc:	0001                	nop
 2de:	0026d703          	lhu	a4,2(a3)
 2e2:	63c1                	lui	t2,0x10
 2e4:	f0038393          	addi	t2,t2,-256 # ff00 <pass+0xfbc2>
 2e8:	02771f63          	bne	a4,t2,326 <fail>
 2ec:	0205                	addi	tp,tp,1 # 1 <_start+0x1>
 2ee:	4289                	li	t0,2
 2f0:	fe5211e3          	bne	tp,t0,2d2 <test_17+0x4>

000002f4 <test_18>:
 2f4:	41c9                	li	gp,18
 2f6:	01000297          	auipc	t0,0x1000
 2fa:	d0a28293          	addi	t0,t0,-758 # 1000000 <__DATA_BEGIN__>
 2fe:	0002d103          	lhu	sp,0(t0)
 302:	4109                	li	sp,2
 304:	4389                	li	t2,2
 306:	02711063          	bne	sp,t2,326 <fail>

0000030a <test_19>:
 30a:	41cd                	li	gp,19
 30c:	01000297          	auipc	t0,0x1000
 310:	cf428293          	addi	t0,t0,-780 # 1000000 <__DATA_BEGIN__>
 314:	0002d103          	lhu	sp,0(t0)
 318:	0001                	nop
 31a:	4109                	li	sp,2
 31c:	4389                	li	t2,2
 31e:	00711463          	bne	sp,t2,326 <fail>
 322:	00301e63          	bne	zero,gp,33e <pass>

00000326 <fail>:
 326:	0ff0000f          	fence
 32a:	00018063          	beqz	gp,32a <fail+0x4>
 32e:	0186                	slli	gp,gp,0x1
 330:	0011e193          	ori	gp,gp,1
 334:	05d00893          	li	a7,93
 338:	850e                	mv	a0,gp
 33a:	00000073          	ecall

0000033e <pass>:
 33e:	0ff0000f          	fence
 342:	4185                	li	gp,1
 344:	05d00893          	li	a7,93
 348:	4501                	li	a0,0
 34a:	00000073          	ecall
	...
