
/home/thanhtran/fpga/rv32e/tb/riscv-tests/rv32ui/lw.S.v2:     file format elf32-littleriscv


Disassembly of section .text:

00000000 <_start>:
   0:	a825                	j	38 <reset_vector>
   2:	0001                	nop

00000004 <trap_vector>:
   4:	34202f73          	csrr	t5,mcause
   8:	4fa1                	li	t6,8
   a:	03ff0463          	beq	t5,t6,32 <write_tohost>
   e:	4fa5                	li	t6,9
  10:	03ff0163          	beq	t5,t6,32 <write_tohost>
  14:	4fad                	li	t6,11
  16:	01ff0e63          	beq	t5,t6,32 <write_tohost>
  1a:	00000f13          	li	t5,0
  1e:	000f0363          	beqz	t5,24 <trap_vector+0x20>
  22:	8f02                	jr	t5
  24:	34202f73          	csrr	t5,mcause
  28:	000f5363          	bgez	t5,2e <handle_exception>
  2c:	a009                	j	2e <handle_exception>

0000002e <handle_exception>:
  2e:	5391e193          	ori	gp,gp,1337

00000032 <write_tohost>:
  32:	8431a023          	sw	gp,-1984(gp) # 1000040 <tohost>
  36:	bff5                	j	32 <write_tohost>

00000038 <reset_vector>:
  38:	4081                	li	ra,0
  3a:	4101                	li	sp,0
  3c:	4181                	li	gp,0
  3e:	4201                	li	tp,0
  40:	4281                	li	t0,0
  42:	4301                	li	t1,0
  44:	4381                	li	t2,0
  46:	4401                	li	s0,0
  48:	4481                	li	s1,0
  4a:	4501                	li	a0,0
  4c:	4581                	li	a1,0
  4e:	4601                	li	a2,0
  50:	4681                	li	a3,0
  52:	4701                	li	a4,0
  54:	4781                	li	a5,0
  56:	4801                	li	a6,0
  58:	4881                	li	a7,0
  5a:	4901                	li	s2,0
  5c:	4981                	li	s3,0
  5e:	4a01                	li	s4,0
  60:	4a81                	li	s5,0
  62:	4b01                	li	s6,0
  64:	4b81                	li	s7,0
  66:	4c01                	li	s8,0
  68:	4c81                	li	s9,0
  6a:	4d01                	li	s10,0
  6c:	4d81                	li	s11,0
  6e:	4e01                	li	t3,0
  70:	4e81                	li	t4,0
  72:	4f01                	li	t5,0
  74:	4f81                	li	t6,0
  76:	f1402573          	csrr	a0,mhartid
  7a:	e101                	bnez	a0,7a <reset_vector+0x42>
  7c:	00000297          	auipc	t0,0x0
  80:	01028293          	addi	t0,t0,16 # 8c <reset_vector+0x54>
  84:	30529073          	csrw	mtvec,t0
  88:	18005073          	csrwi	satp,0
  8c:	00000297          	auipc	t0,0x0
  90:	01c28293          	addi	t0,t0,28 # a8 <reset_vector+0x70>
  94:	30529073          	csrw	mtvec,t0
  98:	800002b7          	lui	t0,0x80000
  9c:	12fd                	addi	t0,t0,-1 # 7fffffff <__global_pointer$+0x7efff7ff>
  9e:	3b029073          	csrw	pmpaddr0,t0
  a2:	42fd                	li	t0,31
  a4:	3a029073          	csrw	pmpcfg0,t0
  a8:	30405073          	csrwi	mie,0
  ac:	00000297          	auipc	t0,0x0
  b0:	01428293          	addi	t0,t0,20 # c0 <reset_vector+0x88>
  b4:	30529073          	csrw	mtvec,t0
  b8:	30205073          	csrwi	medeleg,0
  bc:	30305073          	csrwi	mideleg,0
  c0:	4181                	li	gp,0
  c2:	00000297          	auipc	t0,0x0
  c6:	f4228293          	addi	t0,t0,-190 # 4 <trap_vector>
  ca:	30529073          	csrw	mtvec,t0
  ce:	4505                	li	a0,1
  d0:	057e                	slli	a0,a0,0x1f
  d2:	00054a63          	bltz	a0,e6 <reset_vector+0xae>
  d6:	0ff0000f          	fence
  da:	4185                	li	gp,1
  dc:	05d00893          	li	a7,93
  e0:	4501                	li	a0,0
  e2:	00000073          	ecall
  e6:	00000293          	li	t0,0
  ea:	00028963          	beqz	t0,fc <reset_vector+0xc4>
  ee:	10529073          	csrw	stvec,t0
  f2:	62ad                	lui	t0,0xb
  f4:	10928293          	addi	t0,t0,265 # b109 <pass+0xada7>
  f8:	30229073          	csrw	medeleg,t0
  fc:	30005073          	csrwi	mstatus,0
 100:	00000297          	auipc	t0,0x0
 104:	01428293          	addi	t0,t0,20 # 114 <test_2>
 108:	34129073          	csrw	mepc,t0
 10c:	f1402573          	csrr	a0,mhartid
 110:	30200073          	mret

00000114 <test_2>:
 114:	4189                	li	gp,2
 116:	00ff07b7          	lui	a5,0xff0
 11a:	0ff78793          	addi	a5,a5,255 # ff00ff <pass+0xfefd9d>
 11e:	01000117          	auipc	sp,0x1000
 122:	ee210113          	addi	sp,sp,-286 # 1000000 <__DATA_BEGIN__>
 126:	4702                	lw	a4,0(sp)
 128:	00ff03b7          	lui	t2,0xff0
 12c:	0ff38393          	addi	t2,t2,255 # ff00ff <pass+0xfefd9d>
 130:	20771d63          	bne	a4,t2,34a <fail>

00000134 <test_3>:
 134:	418d                	li	gp,3
 136:	ff0107b7          	lui	a5,0xff010
 13a:	f0078793          	addi	a5,a5,-256 # ff00ff00 <__global_pointer$+0xfe00f700>
 13e:	01000117          	auipc	sp,0x1000
 142:	ec210113          	addi	sp,sp,-318 # 1000000 <__DATA_BEGIN__>
 146:	4712                	lw	a4,4(sp)
 148:	ff0103b7          	lui	t2,0xff010
 14c:	f0038393          	addi	t2,t2,-256 # ff00ff00 <__global_pointer$+0xfe00f700>
 150:	1e771d63          	bne	a4,t2,34a <fail>

00000154 <test_4>:
 154:	4191                	li	gp,4
 156:	0ff017b7          	lui	a5,0xff01
 15a:	17c1                	addi	a5,a5,-16 # ff00ff0 <__global_pointer$+0xef007f0>
 15c:	01000117          	auipc	sp,0x1000
 160:	ea410113          	addi	sp,sp,-348 # 1000000 <__DATA_BEGIN__>
 164:	4722                	lw	a4,8(sp)
 166:	0ff013b7          	lui	t2,0xff01
 16a:	13c1                	addi	t2,t2,-16 # ff00ff0 <__global_pointer$+0xef007f0>
 16c:	1c771f63          	bne	a4,t2,34a <fail>

00000170 <test_5>:
 170:	4195                	li	gp,5
 172:	f00ff7b7          	lui	a5,0xf00ff
 176:	07bd                	addi	a5,a5,15 # f00ff00f <__global_pointer$+0xef0fe80f>
 178:	01000117          	auipc	sp,0x1000
 17c:	e8810113          	addi	sp,sp,-376 # 1000000 <__DATA_BEGIN__>
 180:	4732                	lw	a4,12(sp)
 182:	f00ff3b7          	lui	t2,0xf00ff
 186:	03bd                	addi	t2,t2,15 # f00ff00f <__global_pointer$+0xef0fe80f>
 188:	1c771163          	bne	a4,t2,34a <fail>

0000018c <test_6>:
 18c:	4199                	li	gp,6
 18e:	00ff07b7          	lui	a5,0xff0
 192:	0ff78793          	addi	a5,a5,255 # ff00ff <pass+0xfefd9d>
 196:	01000117          	auipc	sp,0x1000
 19a:	e7610113          	addi	sp,sp,-394 # 100000c <tdat4>
 19e:	ff412703          	lw	a4,-12(sp)
 1a2:	00ff03b7          	lui	t2,0xff0
 1a6:	0ff38393          	addi	t2,t2,255 # ff00ff <pass+0xfefd9d>
 1aa:	1a771063          	bne	a4,t2,34a <fail>

000001ae <test_7>:
 1ae:	419d                	li	gp,7
 1b0:	ff0107b7          	lui	a5,0xff010
 1b4:	f0078793          	addi	a5,a5,-256 # ff00ff00 <__global_pointer$+0xfe00f700>
 1b8:	01000117          	auipc	sp,0x1000
 1bc:	e5410113          	addi	sp,sp,-428 # 100000c <tdat4>
 1c0:	ff812703          	lw	a4,-8(sp)
 1c4:	ff0103b7          	lui	t2,0xff010
 1c8:	f0038393          	addi	t2,t2,-256 # ff00ff00 <__global_pointer$+0xfe00f700>
 1cc:	16771f63          	bne	a4,t2,34a <fail>

000001d0 <test_8>:
 1d0:	41a1                	li	gp,8
 1d2:	0ff017b7          	lui	a5,0xff01
 1d6:	17c1                	addi	a5,a5,-16 # ff00ff0 <__global_pointer$+0xef007f0>
 1d8:	01000117          	auipc	sp,0x1000
 1dc:	e3410113          	addi	sp,sp,-460 # 100000c <tdat4>
 1e0:	ffc12703          	lw	a4,-4(sp)
 1e4:	0ff013b7          	lui	t2,0xff01
 1e8:	13c1                	addi	t2,t2,-16 # ff00ff0 <__global_pointer$+0xef007f0>
 1ea:	16771063          	bne	a4,t2,34a <fail>

000001ee <test_9>:
 1ee:	41a5                	li	gp,9
 1f0:	f00ff7b7          	lui	a5,0xf00ff
 1f4:	07bd                	addi	a5,a5,15 # f00ff00f <__global_pointer$+0xef0fe80f>
 1f6:	01000117          	auipc	sp,0x1000
 1fa:	e1610113          	addi	sp,sp,-490 # 100000c <tdat4>
 1fe:	4702                	lw	a4,0(sp)
 200:	f00ff3b7          	lui	t2,0xf00ff
 204:	03bd                	addi	t2,t2,15 # f00ff00f <__global_pointer$+0xef0fe80f>
 206:	14771263          	bne	a4,t2,34a <fail>

0000020a <test_10>:
 20a:	41a9                	li	gp,10
 20c:	01000097          	auipc	ra,0x1000
 210:	df408093          	addi	ra,ra,-524 # 1000000 <__DATA_BEGIN__>
 214:	1081                	addi	ra,ra,-32
 216:	0200a283          	lw	t0,32(ra)
 21a:	00ff03b7          	lui	t2,0xff0
 21e:	0ff38393          	addi	t2,t2,255 # ff00ff <pass+0xfefd9d>
 222:	12729463          	bne	t0,t2,34a <fail>

00000226 <test_11>:
 226:	41ad                	li	gp,11
 228:	01000097          	auipc	ra,0x1000
 22c:	dd808093          	addi	ra,ra,-552 # 1000000 <__DATA_BEGIN__>
 230:	10f5                	addi	ra,ra,-3
 232:	0070a283          	lw	t0,7(ra)
 236:	ff0103b7          	lui	t2,0xff010
 23a:	f0038393          	addi	t2,t2,-256 # ff00ff00 <__global_pointer$+0xfe00f700>
 23e:	10729663          	bne	t0,t2,34a <fail>

00000242 <test_12>:
 242:	41b1                	li	gp,12
 244:	4201                	li	tp,0
 246:	01000697          	auipc	a3,0x1000
 24a:	dbe68693          	addi	a3,a3,-578 # 1000004 <tdat2>
 24e:	42d8                	lw	a4,4(a3)
 250:	833a                	mv	t1,a4
 252:	0ff013b7          	lui	t2,0xff01
 256:	13c1                	addi	t2,t2,-16 # ff00ff0 <__global_pointer$+0xef007f0>
 258:	0e731963          	bne	t1,t2,34a <fail>
 25c:	0205                	addi	tp,tp,1 # 1 <_start+0x1>
 25e:	4289                	li	t0,2
 260:	fe5213e3          	bne	tp,t0,246 <test_12+0x4>

00000264 <test_13>:
 264:	41b5                	li	gp,13
 266:	4201                	li	tp,0
 268:	01000697          	auipc	a3,0x1000
 26c:	da068693          	addi	a3,a3,-608 # 1000008 <tdat3>
 270:	42d8                	lw	a4,4(a3)
 272:	0001                	nop
 274:	833a                	mv	t1,a4
 276:	f00ff3b7          	lui	t2,0xf00ff
 27a:	03bd                	addi	t2,t2,15 # f00ff00f <__global_pointer$+0xef0fe80f>
 27c:	0c731763          	bne	t1,t2,34a <fail>
 280:	0205                	addi	tp,tp,1 # 1 <_start+0x1>
 282:	4289                	li	t0,2
 284:	fe5212e3          	bne	tp,t0,268 <test_13+0x4>

00000288 <test_14>:
 288:	41b9                	li	gp,14
 28a:	4201                	li	tp,0
 28c:	01000697          	auipc	a3,0x1000
 290:	d7468693          	addi	a3,a3,-652 # 1000000 <__DATA_BEGIN__>
 294:	42d8                	lw	a4,4(a3)
 296:	0001                	nop
 298:	0001                	nop
 29a:	833a                	mv	t1,a4
 29c:	ff0103b7          	lui	t2,0xff010
 2a0:	f0038393          	addi	t2,t2,-256 # ff00ff00 <__global_pointer$+0xfe00f700>
 2a4:	0a731363          	bne	t1,t2,34a <fail>
 2a8:	0205                	addi	tp,tp,1 # 1 <_start+0x1>
 2aa:	4289                	li	t0,2
 2ac:	fe5210e3          	bne	tp,t0,28c <test_14+0x4>

000002b0 <test_15>:
 2b0:	41bd                	li	gp,15
 2b2:	4201                	li	tp,0
 2b4:	01000697          	auipc	a3,0x1000
 2b8:	d5068693          	addi	a3,a3,-688 # 1000004 <tdat2>
 2bc:	42d8                	lw	a4,4(a3)
 2be:	0ff013b7          	lui	t2,0xff01
 2c2:	13c1                	addi	t2,t2,-16 # ff00ff0 <__global_pointer$+0xef007f0>
 2c4:	08771363          	bne	a4,t2,34a <fail>
 2c8:	0205                	addi	tp,tp,1 # 1 <_start+0x1>
 2ca:	4289                	li	t0,2
 2cc:	fe5214e3          	bne	tp,t0,2b4 <test_15+0x4>

000002d0 <test_16>:
 2d0:	41c1                	li	gp,16
 2d2:	4201                	li	tp,0
 2d4:	01000697          	auipc	a3,0x1000
 2d8:	d3468693          	addi	a3,a3,-716 # 1000008 <tdat3>
 2dc:	0001                	nop
 2de:	42d8                	lw	a4,4(a3)
 2e0:	f00ff3b7          	lui	t2,0xf00ff
 2e4:	03bd                	addi	t2,t2,15 # f00ff00f <__global_pointer$+0xef0fe80f>
 2e6:	06771263          	bne	a4,t2,34a <fail>
 2ea:	0205                	addi	tp,tp,1 # 1 <_start+0x1>
 2ec:	4289                	li	t0,2
 2ee:	fe5213e3          	bne	tp,t0,2d4 <test_16+0x4>

000002f2 <test_17>:
 2f2:	41c5                	li	gp,17
 2f4:	4201                	li	tp,0
 2f6:	01000697          	auipc	a3,0x1000
 2fa:	d0a68693          	addi	a3,a3,-758 # 1000000 <__DATA_BEGIN__>
 2fe:	0001                	nop
 300:	0001                	nop
 302:	42d8                	lw	a4,4(a3)
 304:	ff0103b7          	lui	t2,0xff010
 308:	f0038393          	addi	t2,t2,-256 # ff00ff00 <__global_pointer$+0xfe00f700>
 30c:	02771f63          	bne	a4,t2,34a <fail>
 310:	0205                	addi	tp,tp,1 # 1 <_start+0x1>
 312:	4289                	li	t0,2
 314:	fe5211e3          	bne	tp,t0,2f6 <test_17+0x4>

00000318 <test_18>:
 318:	41c9                	li	gp,18
 31a:	01000297          	auipc	t0,0x1000
 31e:	ce628293          	addi	t0,t0,-794 # 1000000 <__DATA_BEGIN__>
 322:	0002a103          	lw	sp,0(t0)
 326:	4109                	li	sp,2
 328:	4389                	li	t2,2
 32a:	02711063          	bne	sp,t2,34a <fail>

0000032e <test_19>:
 32e:	41cd                	li	gp,19
 330:	01000297          	auipc	t0,0x1000
 334:	cd028293          	addi	t0,t0,-816 # 1000000 <__DATA_BEGIN__>
 338:	0002a103          	lw	sp,0(t0)
 33c:	0001                	nop
 33e:	4109                	li	sp,2
 340:	4389                	li	t2,2
 342:	00711463          	bne	sp,t2,34a <fail>
 346:	00301e63          	bne	zero,gp,362 <pass>

0000034a <fail>:
 34a:	0ff0000f          	fence
 34e:	00018063          	beqz	gp,34e <fail+0x4>
 352:	0186                	slli	gp,gp,0x1
 354:	0011e193          	ori	gp,gp,1
 358:	05d00893          	li	a7,93
 35c:	850e                	mv	a0,gp
 35e:	00000073          	ecall

00000362 <pass>:
 362:	0ff0000f          	fence
 366:	4185                	li	gp,1
 368:	05d00893          	li	a7,93
 36c:	4501                	li	a0,0
 36e:	00000073          	ecall
	...
