
/home/thanhtran/fpga/rv32e/tb/riscv-tests/rv32ui/ma_data.S.v2:     file format elf32-littleriscv


Disassembly of section .text:

00000000 <_start>:
   0:	a825                	j	38 <reset_vector>
   2:	0001                	nop

00000004 <trap_vector>:
   4:	34202f73          	csrr	t5,mcause
   8:	4fa1                	li	t6,8
   a:	03ff0463          	beq	t5,t6,32 <write_tohost>
   e:	4fa5                	li	t6,9
  10:	03ff0163          	beq	t5,t6,32 <write_tohost>
  14:	4fad                	li	t6,11
  16:	01ff0e63          	beq	t5,t6,32 <write_tohost>
  1a:	00000f13          	li	t5,0
  1e:	000f0363          	beqz	t5,24 <trap_vector+0x20>
  22:	8f02                	jr	t5
  24:	34202f73          	csrr	t5,mcause
  28:	000f5363          	bgez	t5,2e <handle_exception>
  2c:	a009                	j	2e <handle_exception>

0000002e <handle_exception>:
  2e:	5391e193          	ori	gp,gp,1337

00000032 <write_tohost>:
  32:	9831a023          	sw	gp,-1664(gp) # 1000180 <end_signature>
  36:	bff5                	j	32 <write_tohost>

00000038 <reset_vector>:
  38:	4081                	li	ra,0
  3a:	4101                	li	sp,0
  3c:	4181                	li	gp,0
  3e:	4201                	li	tp,0
  40:	4281                	li	t0,0
  42:	4301                	li	t1,0
  44:	4381                	li	t2,0
  46:	4401                	li	s0,0
  48:	4481                	li	s1,0
  4a:	4501                	li	a0,0
  4c:	4581                	li	a1,0
  4e:	4601                	li	a2,0
  50:	4681                	li	a3,0
  52:	4701                	li	a4,0
  54:	4781                	li	a5,0
  56:	4801                	li	a6,0
  58:	4881                	li	a7,0
  5a:	4901                	li	s2,0
  5c:	4981                	li	s3,0
  5e:	4a01                	li	s4,0
  60:	4a81                	li	s5,0
  62:	4b01                	li	s6,0
  64:	4b81                	li	s7,0
  66:	4c01                	li	s8,0
  68:	4c81                	li	s9,0
  6a:	4d01                	li	s10,0
  6c:	4d81                	li	s11,0
  6e:	4e01                	li	t3,0
  70:	4e81                	li	t4,0
  72:	4f01                	li	t5,0
  74:	4f81                	li	t6,0
  76:	f1402573          	csrr	a0,mhartid
  7a:	e101                	bnez	a0,7a <reset_vector+0x42>
  7c:	00000297          	auipc	t0,0x0
  80:	01028293          	addi	t0,t0,16 # 8c <reset_vector+0x54>
  84:	30529073          	csrw	mtvec,t0
  88:	18005073          	csrwi	satp,0
  8c:	00000297          	auipc	t0,0x0
  90:	01c28293          	addi	t0,t0,28 # a8 <reset_vector+0x70>
  94:	30529073          	csrw	mtvec,t0
  98:	800002b7          	lui	t0,0x80000
  9c:	12fd                	addi	t0,t0,-1 # 7fffffff <__global_pointer$+0x7efff7ff>
  9e:	3b029073          	csrw	pmpaddr0,t0
  a2:	42fd                	li	t0,31
  a4:	3a029073          	csrw	pmpcfg0,t0
  a8:	30405073          	csrwi	mie,0
  ac:	00000297          	auipc	t0,0x0
  b0:	01428293          	addi	t0,t0,20 # c0 <reset_vector+0x88>
  b4:	30529073          	csrw	mtvec,t0
  b8:	30205073          	csrwi	medeleg,0
  bc:	30305073          	csrwi	mideleg,0
  c0:	4181                	li	gp,0
  c2:	00000297          	auipc	t0,0x0
  c6:	f4228293          	addi	t0,t0,-190 # 4 <trap_vector>
  ca:	30529073          	csrw	mtvec,t0
  ce:	4505                	li	a0,1
  d0:	057e                	slli	a0,a0,0x1f
  d2:	00054a63          	bltz	a0,e6 <reset_vector+0xae>
  d6:	0ff0000f          	fence
  da:	4185                	li	gp,1
  dc:	05d00893          	li	a7,93
  e0:	4501                	li	a0,0
  e2:	00000073          	ecall
  e6:	00000293          	li	t0,0
  ea:	00028963          	beqz	t0,fc <reset_vector+0xc4>
  ee:	10529073          	csrw	stvec,t0
  f2:	62ad                	lui	t0,0xb
  f4:	10928293          	addi	t0,t0,265 # b109 <pass+0xaaed>
  f8:	30229073          	csrw	medeleg,t0
  fc:	30005073          	csrwi	mstatus,0
 100:	00000297          	auipc	t0,0x0
 104:	01428293          	addi	t0,t0,20 # 114 <reset_vector+0xdc>
 108:	34129073          	csrw	mepc,t0
 10c:	f1402573          	csrr	a0,mhartid
 110:	30200073          	mret
 114:	01000417          	auipc	s0,0x1000
 118:	eec40413          	addi	s0,s0,-276 # 1000000 <__DATA_BEGIN__>
 11c:	4185                	li	gp,1
 11e:	20100313          	li	t1,513
 122:	00141383          	lh	t2,1(s0)
 126:	4c731f63          	bne	t1,t2,604 <fail>
 12a:	4189                	li	gp,2
 12c:	20100313          	li	t1,513
 130:	00145383          	lhu	t2,1(s0)
 134:	4c731863          	bne	t1,t2,604 <fail>
 138:	418d                	li	gp,3
 13a:	04030337          	lui	t1,0x4030
 13e:	20130313          	addi	t1,t1,513 # 4030201 <__global_pointer$+0x302fa01>
 142:	00142383          	lw	t2,1(s0)
 146:	4a731f63          	bne	t1,t2,604 <fail>
 14a:	4191                	li	gp,4
 14c:	05040337          	lui	t1,0x5040
 150:	30230313          	addi	t1,t1,770 # 5040302 <__global_pointer$+0x403fb02>
 154:	00242383          	lw	t2,2(s0)
 158:	4a731663          	bne	t1,t2,604 <fail>
 15c:	4195                	li	gp,5
 15e:	06050337          	lui	t1,0x6050
 162:	40330313          	addi	t1,t1,1027 # 6050403 <__global_pointer$+0x504fc03>
 166:	00342383          	lw	t2,3(s0)
 16a:	48731d63          	bne	t1,t2,604 <fail>
 16e:	41c1                	li	gp,16
 170:	6309                	lui	t1,0x2
 172:	037d                	addi	t1,t1,31 # 201f <pass+0x1a03>
 174:	01f41383          	lh	t2,31(s0)
 178:	48731663          	bne	t1,t2,604 <fail>
 17c:	41c5                	li	gp,17
 17e:	6309                	lui	t1,0x2
 180:	037d                	addi	t1,t1,31 # 201f <pass+0x1a03>
 182:	01f45383          	lhu	t2,31(s0)
 186:	46731f63          	bne	t1,t2,604 <fail>
 18a:	41c9                	li	gp,18
 18c:	201f2337          	lui	t1,0x201f2
 190:	e1d30313          	addi	t1,t1,-483 # 201f1e1d <__global_pointer$+0x1f1f161d>
 194:	01d42383          	lw	t2,29(s0)
 198:	46731663          	bne	t1,t2,604 <fail>
 19c:	41cd                	li	gp,19
 19e:	21202337          	lui	t1,0x21202
 1a2:	f1e30313          	addi	t1,t1,-226 # 21201f1e <__global_pointer$+0x2020171e>
 1a6:	01e42383          	lw	t2,30(s0)
 1aa:	44731d63          	bne	t1,t2,604 <fail>
 1ae:	41d1                	li	gp,20
 1b0:	22212337          	lui	t1,0x22212
 1b4:	037d                	addi	t1,t1,31 # 2221201f <__global_pointer$+0x2121181f>
 1b6:	01f42383          	lw	t2,31(s0)
 1ba:	44731563          	bne	t1,t2,604 <fail>
 1be:	41fd                	li	gp,31
 1c0:	6311                	lui	t1,0x4
 1c2:	03f30313          	addi	t1,t1,63 # 403f <pass+0x3a23>
 1c6:	03f41383          	lh	t2,63(s0)
 1ca:	42731d63          	bne	t1,t2,604 <fail>
 1ce:	02000193          	li	gp,32
 1d2:	6311                	lui	t1,0x4
 1d4:	03f30313          	addi	t1,t1,63 # 403f <pass+0x3a23>
 1d8:	03f45383          	lhu	t2,63(s0)
 1dc:	42731463          	bne	t1,t2,604 <fail>
 1e0:	02100193          	li	gp,33
 1e4:	403f4337          	lui	t1,0x403f4
 1e8:	e3d30313          	addi	t1,t1,-451 # 403f3e3d <__global_pointer$+0x3f3f363d>
 1ec:	03d42383          	lw	t2,61(s0)
 1f0:	40731a63          	bne	t1,t2,604 <fail>
 1f4:	02200193          	li	gp,34
 1f8:	41404337          	lui	t1,0x41404
 1fc:	f3e30313          	addi	t1,t1,-194 # 41403f3e <__global_pointer$+0x4040373e>
 200:	03e42383          	lw	t2,62(s0)
 204:	40731063          	bne	t1,t2,604 <fail>
 208:	02300193          	li	gp,35
 20c:	42414337          	lui	t1,0x42414
 210:	03f30313          	addi	t1,t1,63 # 4241403f <__global_pointer$+0x4141383f>
 214:	03f42383          	lw	t2,63(s0)
 218:	3e731663          	bne	t1,t2,604 <fail>
 21c:	02e00193          	li	gp,46
 220:	7361                	lui	t1,0xffff8
 222:	18030313          	addi	t1,t1,384 # ffff8180 <__global_pointer$+0xfeff7980>
 226:	006410a3          	sh	t1,1(s0)
 22a:	00141383          	lh	t2,1(s0)
 22e:	3c731b63          	bne	t1,t2,604 <fail>
 232:	02f00193          	li	gp,47
 236:	6321                	lui	t1,0x8
 238:	38230313          	addi	t1,t1,898 # 8382 <pass+0x7d66>
 23c:	006410a3          	sh	t1,1(s0)
 240:	00145383          	lhu	t2,1(s0)
 244:	3c731063          	bne	t1,t2,604 <fail>
 248:	03000193          	li	gp,48
 24c:	87868337          	lui	t1,0x87868
 250:	58430313          	addi	t1,t1,1412 # 87868584 <__global_pointer$+0x86867d84>
 254:	006420a3          	sw	t1,1(s0)
 258:	00142383          	lw	t2,1(s0)
 25c:	3a731463          	bne	t1,t2,604 <fail>
 260:	03100193          	li	gp,49
 264:	8b8a9337          	lui	t1,0x8b8a9
 268:	98830313          	addi	t1,t1,-1656 # 8b8a8988 <__global_pointer$+0x8a8a8188>
 26c:	00642123          	sw	t1,2(s0)
 270:	00242383          	lw	t2,2(s0)
 274:	38731863          	bne	t1,t2,604 <fail>
 278:	03200193          	li	gp,50
 27c:	8f8e9337          	lui	t1,0x8f8e9
 280:	d8c30313          	addi	t1,t1,-628 # 8f8e8d8c <__global_pointer$+0x8e8e858c>
 284:	006421a3          	sw	t1,3(s0)
 288:	00342383          	lw	t2,3(s0)
 28c:	36731c63          	bne	t1,t2,604 <fail>
 290:	03d00193          	li	gp,61
 294:	7375                	lui	t1,0xffffd
 296:	5d430313          	addi	t1,t1,1492 # ffffd5d4 <__global_pointer$+0xfeffcdd4>
 29a:	00641fa3          	sh	t1,31(s0)
 29e:	01f41383          	lh	t2,31(s0)
 2a2:	36731163          	bne	t1,t2,604 <fail>
 2a6:	03e00193          	li	gp,62
 2aa:	6335                	lui	t1,0xd
 2ac:	7d630313          	addi	t1,t1,2006 # d7d6 <pass+0xd1ba>
 2b0:	00641fa3          	sh	t1,31(s0)
 2b4:	01f45383          	lhu	t2,31(s0)
 2b8:	34731663          	bne	t1,t2,604 <fail>
 2bc:	03f00193          	li	gp,63
 2c0:	dbdae337          	lui	t1,0xdbdae
 2c4:	9d830313          	addi	t1,t1,-1576 # dbdad9d8 <__global_pointer$+0xdadad1d8>
 2c8:	00642ea3          	sw	t1,29(s0)
 2cc:	01d42383          	lw	t2,29(s0)
 2d0:	32731a63          	bne	t1,t2,604 <fail>
 2d4:	04000193          	li	gp,64
 2d8:	dfdee337          	lui	t1,0xdfdee
 2dc:	ddc30313          	addi	t1,t1,-548 # dfdedddc <__global_pointer$+0xdeded5dc>
 2e0:	00642f23          	sw	t1,30(s0)
 2e4:	01e42383          	lw	t2,30(s0)
 2e8:	30731e63          	bne	t1,t2,604 <fail>
 2ec:	04100193          	li	gp,65
 2f0:	e3e2e337          	lui	t1,0xe3e2e
 2f4:	1e030313          	addi	t1,t1,480 # e3e2e1e0 <__global_pointer$+0xe2e2d9e0>
 2f8:	00642fa3          	sw	t1,31(s0)
 2fc:	01f42383          	lw	t2,31(s0)
 300:	30731263          	bne	t1,t2,604 <fail>
 304:	04c00193          	li	gp,76
 308:	630d                	lui	t1,0x3
 30a:	53430313          	addi	t1,t1,1332 # 3534 <pass+0x2f18>
 30e:	02641fa3          	sh	t1,63(s0)
 312:	03f41383          	lh	t2,63(s0)
 316:	2e731763          	bne	t1,t2,604 <fail>
 31a:	04d00193          	li	gp,77
 31e:	630d                	lui	t1,0x3
 320:	73630313          	addi	t1,t1,1846 # 3736 <pass+0x311a>
 324:	02641fa3          	sh	t1,63(s0)
 328:	03f45383          	lhu	t2,63(s0)
 32c:	2c731c63          	bne	t1,t2,604 <fail>
 330:	04e00193          	li	gp,78
 334:	3b3a4337          	lui	t1,0x3b3a4
 338:	93830313          	addi	t1,t1,-1736 # 3b3a3938 <__global_pointer$+0x3a3a3138>
 33c:	02642ea3          	sw	t1,61(s0)
 340:	03d42383          	lw	t2,61(s0)
 344:	2c731063          	bne	t1,t2,604 <fail>
 348:	04f00193          	li	gp,79
 34c:	3f3e4337          	lui	t1,0x3f3e4
 350:	d3c30313          	addi	t1,t1,-708 # 3f3e3d3c <__global_pointer$+0x3e3e353c>
 354:	02642f23          	sw	t1,62(s0)
 358:	03e42383          	lw	t2,62(s0)
 35c:	2a731463          	bne	t1,t2,604 <fail>
 360:	05000193          	li	gp,80
 364:	43424337          	lui	t1,0x43424
 368:	14030313          	addi	t1,t1,320 # 43424140 <__global_pointer$+0x42423940>
 36c:	02642fa3          	sw	t1,63(s0)
 370:	03f42383          	lw	t2,63(s0)
 374:	28731863          	bne	t1,t2,604 <fail>
 378:	05b00193          	li	gp,91
 37c:	6329                	lui	t1,0xa
 37e:	99830313          	addi	t1,t1,-1640 # 9998 <pass+0x937c>
 382:	f9800393          	li	t2,-104
 386:	006410a3          	sh	t1,1(s0)
 38a:	00140e03          	lb	t3,1(s0)
 38e:	27c39b63          	bne	t2,t3,604 <fail>
 392:	05c00193          	li	gp,92
 396:	6329                	lui	t1,0xa
 398:	b9a30313          	addi	t1,t1,-1126 # 9b9a <pass+0x957e>
 39c:	f9b00393          	li	t2,-101
 3a0:	006410a3          	sh	t1,1(s0)
 3a4:	00240e03          	lb	t3,2(s0)
 3a8:	25c39e63          	bne	t2,t3,604 <fail>
 3ac:	05d00193          	li	gp,93
 3b0:	6329                	lui	t1,0xa
 3b2:	d9c30313          	addi	t1,t1,-612 # 9d9c <pass+0x9780>
 3b6:	09c00393          	li	t2,156
 3ba:	006410a3          	sh	t1,1(s0)
 3be:	00144e03          	lbu	t3,1(s0)
 3c2:	25c39163          	bne	t2,t3,604 <fail>
 3c6:	05e00193          	li	gp,94
 3ca:	6329                	lui	t1,0xa
 3cc:	f9e30313          	addi	t1,t1,-98 # 9f9e <pass+0x9982>
 3d0:	09f00393          	li	t2,159
 3d4:	006410a3          	sh	t1,1(s0)
 3d8:	00244e03          	lbu	t3,2(s0)
 3dc:	23c39463          	bne	t2,t3,604 <fail>
 3e0:	05f00193          	li	gp,95
 3e4:	a3a2a337          	lui	t1,0xa3a2a
 3e8:	1a030313          	addi	t1,t1,416 # a3a2a1a0 <__global_pointer$+0xa2a299a0>
 3ec:	fa000393          	li	t2,-96
 3f0:	006420a3          	sw	t1,1(s0)
 3f4:	00140e03          	lb	t3,1(s0)
 3f8:	21c39663          	bne	t2,t3,604 <fail>
 3fc:	06000193          	li	gp,96
 400:	a7a6a337          	lui	t1,0xa7a6a
 404:	5a430313          	addi	t1,t1,1444 # a7a6a5a4 <__global_pointer$+0xa6a69da4>
 408:	0a500393          	li	t2,165
 40c:	00642123          	sw	t1,2(s0)
 410:	00344e03          	lbu	t3,3(s0)
 414:	1fc39863          	bne	t2,t3,604 <fail>
 418:	06100193          	li	gp,97
 41c:	abaab337          	lui	t1,0xabaab
 420:	9a830313          	addi	t1,t1,-1624 # abaaa9a8 <__global_pointer$+0xaaaaa1a8>
 424:	73ed                	lui	t2,0xffffb
 426:	aa938393          	addi	t2,t2,-1367 # ffffaaa9 <__global_pointer$+0xfeffa2a9>
 42a:	006421a3          	sw	t1,3(s0)
 42e:	00441e03          	lh	t3,4(s0)
 432:	1dc39963          	bne	t2,t3,604 <fail>
 436:	06200193          	li	gp,98
 43a:	afaeb337          	lui	t1,0xafaeb
 43e:	dac30313          	addi	t1,t1,-596 # afaeadac <__global_pointer$+0xaeaea5ac>
 442:	63ad                	lui	t2,0xb
 444:	fae38393          	addi	t2,t2,-82 # afae <pass+0xa992>
 448:	006421a3          	sw	t1,3(s0)
 44c:	00545e03          	lhu	t3,5(s0)
 450:	1bc39a63          	bne	t2,t3,604 <fail>
 454:	06a00193          	li	gp,106
 458:	633d                	lui	t1,0xf
 45a:	9e830313          	addi	t1,t1,-1560 # e9e8 <pass+0xe3cc>
 45e:	53a1                	li	t2,-24
 460:	00641fa3          	sh	t1,31(s0)
 464:	01f40e03          	lb	t3,31(s0)
 468:	19c39e63          	bne	t2,t3,604 <fail>
 46c:	06b00193          	li	gp,107
 470:	633d                	lui	t1,0xf
 472:	bea30313          	addi	t1,t1,-1046 # ebea <pass+0xe5ce>
 476:	53ad                	li	t2,-21
 478:	00641fa3          	sh	t1,31(s0)
 47c:	02040e03          	lb	t3,32(s0)
 480:	19c39263          	bne	t2,t3,604 <fail>
 484:	06c00193          	li	gp,108
 488:	633d                	lui	t1,0xf
 48a:	dec30313          	addi	t1,t1,-532 # edec <pass+0xe7d0>
 48e:	0ec00393          	li	t2,236
 492:	00641fa3          	sh	t1,31(s0)
 496:	01f44e03          	lbu	t3,31(s0)
 49a:	17c39563          	bne	t2,t3,604 <fail>
 49e:	06d00193          	li	gp,109
 4a2:	633d                	lui	t1,0xf
 4a4:	1339                	addi	t1,t1,-18 # efee <pass+0xe9d2>
 4a6:	0ef00393          	li	t2,239
 4aa:	00641fa3          	sh	t1,31(s0)
 4ae:	02044e03          	lbu	t3,32(s0)
 4b2:	15c39963          	bne	t2,t3,604 <fail>
 4b6:	06e00193          	li	gp,110
 4ba:	f3f2f337          	lui	t1,0xf3f2f
 4be:	1f030313          	addi	t1,t1,496 # f3f2f1f0 <__global_pointer$+0xf2f2e9f0>
 4c2:	53c1                	li	t2,-16
 4c4:	00642ea3          	sw	t1,29(s0)
 4c8:	01d40e03          	lb	t3,29(s0)
 4cc:	13c39c63          	bne	t2,t3,604 <fail>
 4d0:	06f00193          	li	gp,111
 4d4:	f7f6f337          	lui	t1,0xf7f6f
 4d8:	5f430313          	addi	t1,t1,1524 # f7f6f5f4 <__global_pointer$+0xf6f6edf4>
 4dc:	0f600393          	li	t2,246
 4e0:	00642f23          	sw	t1,30(s0)
 4e4:	02044e03          	lbu	t3,32(s0)
 4e8:	11c39e63          	bne	t2,t3,604 <fail>
 4ec:	07000193          	li	gp,112
 4f0:	fbfb0337          	lui	t1,0xfbfb0
 4f4:	9f830313          	addi	t1,t1,-1544 # fbfaf9f8 <__global_pointer$+0xfafaf1f8>
 4f8:	bfa00393          	li	t2,-1030
 4fc:	00642ea3          	sw	t1,29(s0)
 500:	01f41e03          	lh	t3,31(s0)
 504:	11c39063          	bne	t2,t3,604 <fail>
 508:	07100193          	li	gp,113
 50c:	7341                	lui	t1,0xffff0
 50e:	dfc30313          	addi	t1,t1,-516 # fffefdfc <__global_pointer$+0xfefef5fc>
 512:	63c1                	lui	t2,0x10
 514:	dfc38393          	addi	t2,t2,-516 # fdfc <pass+0xf7e0>
 518:	00642fa3          	sw	t1,31(s0)
 51c:	01f45e03          	lhu	t3,31(s0)
 520:	0fc39263          	bne	t2,t3,604 <fail>
 524:	07900193          	li	gp,121
 528:	6315                	lui	t1,0x5
 52a:	94830313          	addi	t1,t1,-1720 # 4948 <pass+0x432c>
 52e:	04800393          	li	t2,72
 532:	02641fa3          	sh	t1,63(s0)
 536:	03f40e03          	lb	t3,63(s0)
 53a:	0dc39563          	bne	t2,t3,604 <fail>
 53e:	07a00193          	li	gp,122
 542:	6315                	lui	t1,0x5
 544:	b4a30313          	addi	t1,t1,-1206 # 4b4a <pass+0x452e>
 548:	04b00393          	li	t2,75
 54c:	02641fa3          	sh	t1,63(s0)
 550:	04040e03          	lb	t3,64(s0)
 554:	0bc39863          	bne	t2,t3,604 <fail>
 558:	07b00193          	li	gp,123
 55c:	6315                	lui	t1,0x5
 55e:	d4c30313          	addi	t1,t1,-692 # 4d4c <pass+0x4730>
 562:	04c00393          	li	t2,76
 566:	02641fa3          	sh	t1,63(s0)
 56a:	03f44e03          	lbu	t3,63(s0)
 56e:	09c39b63          	bne	t2,t3,604 <fail>
 572:	07c00193          	li	gp,124
 576:	6315                	lui	t1,0x5
 578:	f4e30313          	addi	t1,t1,-178 # 4f4e <pass+0x4932>
 57c:	04f00393          	li	t2,79
 580:	02641fa3          	sh	t1,63(s0)
 584:	04044e03          	lbu	t3,64(s0)
 588:	07c39e63          	bne	t2,t3,604 <fail>
 58c:	07d00193          	li	gp,125
 590:	53525337          	lui	t1,0x53525
 594:	15030313          	addi	t1,t1,336 # 53525150 <__global_pointer$+0x52524950>
 598:	05000393          	li	t2,80
 59c:	02642ea3          	sw	t1,61(s0)
 5a0:	03d40e03          	lb	t3,61(s0)
 5a4:	07c39063          	bne	t2,t3,604 <fail>
 5a8:	07e00193          	li	gp,126
 5ac:	57565337          	lui	t1,0x57565
 5b0:	55430313          	addi	t1,t1,1364 # 57565554 <__global_pointer$+0x56564d54>
 5b4:	05600393          	li	t2,86
 5b8:	02642f23          	sw	t1,62(s0)
 5bc:	04044e03          	lbu	t3,64(s0)
 5c0:	05c39263          	bne	t2,t3,604 <fail>
 5c4:	07f00193          	li	gp,127
 5c8:	5b5a6337          	lui	t1,0x5b5a6
 5cc:	95830313          	addi	t1,t1,-1704 # 5b5a5958 <__global_pointer$+0x5a5a5158>
 5d0:	6399                	lui	t2,0x6
 5d2:	b5a38393          	addi	t2,t2,-1190 # 5b5a <pass+0x553e>
 5d6:	02642ea3          	sw	t1,61(s0)
 5da:	03f41e03          	lh	t3,63(s0)
 5de:	03c39363          	bne	t2,t3,604 <fail>
 5e2:	08000193          	li	gp,128
 5e6:	5f5e6337          	lui	t1,0x5f5e6
 5ea:	d5c30313          	addi	t1,t1,-676 # 5f5e5d5c <__global_pointer$+0x5e5e555c>
 5ee:	6399                	lui	t2,0x6
 5f0:	d5c38393          	addi	t2,t2,-676 # 5d5c <pass+0x5740>
 5f4:	02642fa3          	sw	t1,63(s0)
 5f8:	03f45e03          	lhu	t3,63(s0)
 5fc:	01c39463          	bne	t2,t3,604 <fail>
 600:	00301e63          	bne	zero,gp,61c <pass>

00000604 <fail>:
 604:	0ff0000f          	fence
 608:	00018063          	beqz	gp,608 <fail+0x4>
 60c:	0186                	slli	gp,gp,0x1
 60e:	0011e193          	ori	gp,gp,1
 612:	05d00893          	li	a7,93
 616:	850e                	mv	a0,gp
 618:	00000073          	ecall

0000061c <pass>:
 61c:	0ff0000f          	fence
 620:	4185                	li	gp,1
 622:	05d00893          	li	a7,93
 626:	4501                	li	a0,0
 628:	00000073          	ecall
 62c:	0000                	unimp
	...
