
/home/thanhtran/fpga/rv32e/tb/riscv-tests/rv32ui/ori.S.v2:     file format elf32-littleriscv


Disassembly of section .text:

00000000 <_start>:
   0:	a835                	j	3c <reset_vector>
   2:	0001                	nop

00000004 <trap_vector>:
   4:	34202f73          	csrr	t5,mcause
   8:	4fa1                	li	t6,8
   a:	03ff0463          	beq	t5,t6,32 <write_tohost>
   e:	4fa5                	li	t6,9
  10:	03ff0163          	beq	t5,t6,32 <write_tohost>
  14:	4fad                	li	t6,11
  16:	01ff0e63          	beq	t5,t6,32 <write_tohost>
  1a:	00000f13          	li	t5,0
  1e:	000f0363          	beqz	t5,24 <trap_vector+0x20>
  22:	8f02                	jr	t5
  24:	34202f73          	csrr	t5,mcause
  28:	000f5363          	bgez	t5,2e <handle_exception>
  2c:	a009                	j	2e <handle_exception>

0000002e <handle_exception>:
  2e:	5391e193          	ori	gp,gp,1337

00000032 <write_tohost>:
  32:	01000f17          	auipc	t5,0x1000
  36:	fc3f2723          	sw	gp,-50(t5) # 1000000 <__DATA_BEGIN__>
  3a:	bfe5                	j	32 <write_tohost>

0000003c <reset_vector>:
  3c:	4081                	li	ra,0
  3e:	4101                	li	sp,0
  40:	4181                	li	gp,0
  42:	4201                	li	tp,0
  44:	4281                	li	t0,0
  46:	4301                	li	t1,0
  48:	4381                	li	t2,0
  4a:	4401                	li	s0,0
  4c:	4481                	li	s1,0
  4e:	4501                	li	a0,0
  50:	4581                	li	a1,0
  52:	4601                	li	a2,0
  54:	4681                	li	a3,0
  56:	4701                	li	a4,0
  58:	4781                	li	a5,0
  5a:	4801                	li	a6,0
  5c:	4881                	li	a7,0
  5e:	4901                	li	s2,0
  60:	4981                	li	s3,0
  62:	4a01                	li	s4,0
  64:	4a81                	li	s5,0
  66:	4b01                	li	s6,0
  68:	4b81                	li	s7,0
  6a:	4c01                	li	s8,0
  6c:	4c81                	li	s9,0
  6e:	4d01                	li	s10,0
  70:	4d81                	li	s11,0
  72:	4e01                	li	t3,0
  74:	4e81                	li	t4,0
  76:	4f01                	li	t5,0
  78:	4f81                	li	t6,0
  7a:	f1402573          	csrr	a0,mhartid
  7e:	e101                	bnez	a0,7e <reset_vector+0x42>
  80:	00000297          	auipc	t0,0x0
  84:	01028293          	addi	t0,t0,16 # 90 <reset_vector+0x54>
  88:	30529073          	csrw	mtvec,t0
  8c:	18005073          	csrwi	satp,0
  90:	00000297          	auipc	t0,0x0
  94:	01c28293          	addi	t0,t0,28 # ac <reset_vector+0x70>
  98:	30529073          	csrw	mtvec,t0
  9c:	800002b7          	lui	t0,0x80000
  a0:	12fd                	addi	t0,t0,-1 # 7fffffff <__global_pointer$+0x7efff7ff>
  a2:	3b029073          	csrw	pmpaddr0,t0
  a6:	42fd                	li	t0,31
  a8:	3a029073          	csrw	pmpcfg0,t0
  ac:	30405073          	csrwi	mie,0
  b0:	00000297          	auipc	t0,0x0
  b4:	01428293          	addi	t0,t0,20 # c4 <reset_vector+0x88>
  b8:	30529073          	csrw	mtvec,t0
  bc:	30205073          	csrwi	medeleg,0
  c0:	30305073          	csrwi	mideleg,0
  c4:	4181                	li	gp,0
  c6:	00000297          	auipc	t0,0x0
  ca:	f3e28293          	addi	t0,t0,-194 # 4 <trap_vector>
  ce:	30529073          	csrw	mtvec,t0
  d2:	4505                	li	a0,1
  d4:	057e                	slli	a0,a0,0x1f
  d6:	00054a63          	bltz	a0,ea <reset_vector+0xae>
  da:	0ff0000f          	fence
  de:	4185                	li	gp,1
  e0:	05d00893          	li	a7,93
  e4:	4501                	li	a0,0
  e6:	00000073          	ecall
  ea:	00000293          	li	t0,0
  ee:	00028963          	beqz	t0,100 <reset_vector+0xc4>
  f2:	10529073          	csrw	stvec,t0
  f6:	62ad                	lui	t0,0xb
  f8:	10928293          	addi	t0,t0,265 # b109 <pass+0xae63>
  fc:	30229073          	csrw	medeleg,t0
 100:	30005073          	csrwi	mstatus,0
 104:	00000297          	auipc	t0,0x0
 108:	01428293          	addi	t0,t0,20 # 118 <test_2>
 10c:	34129073          	csrw	mepc,t0
 110:	f1402573          	csrr	a0,mhartid
 114:	30200073          	mret

00000118 <test_2>:
 118:	4189                	li	gp,2
 11a:	ff0106b7          	lui	a3,0xff010
 11e:	f0068693          	addi	a3,a3,-256 # ff00ff00 <__global_pointer$+0xfe00f700>
 122:	f0f6e713          	ori	a4,a3,-241
 126:	f0f00393          	li	t2,-241
 12a:	16771263          	bne	a4,t2,28e <fail>

0000012e <test_3>:
 12e:	418d                	li	gp,3
 130:	0ff016b7          	lui	a3,0xff01
 134:	16c1                	addi	a3,a3,-16 # ff00ff0 <__global_pointer$+0xef007f0>
 136:	0f06e713          	ori	a4,a3,240
 13a:	0ff013b7          	lui	t2,0xff01
 13e:	13c1                	addi	t2,t2,-16 # ff00ff0 <__global_pointer$+0xef007f0>
 140:	14771763          	bne	a4,t2,28e <fail>

00000144 <test_4>:
 144:	4191                	li	gp,4
 146:	00ff06b7          	lui	a3,0xff0
 14a:	0ff68693          	addi	a3,a3,255 # ff00ff <pass+0xfefe59>
 14e:	70f6e713          	ori	a4,a3,1807
 152:	00ff03b7          	lui	t2,0xff0
 156:	7ff38393          	addi	t2,t2,2047 # ff07ff <pass+0xff0559>
 15a:	12771a63          	bne	a4,t2,28e <fail>

0000015e <test_5>:
 15e:	4195                	li	gp,5
 160:	f00ff6b7          	lui	a3,0xf00ff
 164:	06bd                	addi	a3,a3,15 # f00ff00f <__global_pointer$+0xef0fe80f>
 166:	0f06e713          	ori	a4,a3,240
 16a:	f00ff3b7          	lui	t2,0xf00ff
 16e:	0ff38393          	addi	t2,t2,255 # f00ff0ff <__global_pointer$+0xef0fe8ff>
 172:	10771e63          	bne	a4,t2,28e <fail>

00000176 <test_6>:
 176:	4199                	li	gp,6
 178:	ff0105b7          	lui	a1,0xff010
 17c:	f0058593          	addi	a1,a1,-256 # ff00ff00 <__global_pointer$+0xfe00f700>
 180:	0f05e593          	ori	a1,a1,240
 184:	ff0103b7          	lui	t2,0xff010
 188:	13c1                	addi	t2,t2,-16 # ff00fff0 <__global_pointer$+0xfe00f7f0>
 18a:	10759263          	bne	a1,t2,28e <fail>

0000018e <test_7>:
 18e:	419d                	li	gp,7
 190:	4201                	li	tp,0
 192:	0ff010b7          	lui	ra,0xff01
 196:	10c1                	addi	ra,ra,-16 # ff00ff0 <__global_pointer$+0xef007f0>
 198:	0f00e713          	ori	a4,ra,240
 19c:	833a                	mv	t1,a4
 19e:	0205                	addi	tp,tp,1 # 1 <_start+0x1>
 1a0:	4289                	li	t0,2
 1a2:	fe5218e3          	bne	tp,t0,192 <test_7+0x4>
 1a6:	0ff013b7          	lui	t2,0xff01
 1aa:	13c1                	addi	t2,t2,-16 # ff00ff0 <__global_pointer$+0xef007f0>
 1ac:	0e731163          	bne	t1,t2,28e <fail>

000001b0 <test_8>:
 1b0:	41a1                	li	gp,8
 1b2:	4201                	li	tp,0
 1b4:	00ff00b7          	lui	ra,0xff0
 1b8:	0ff08093          	addi	ra,ra,255 # ff00ff <pass+0xfefe59>
 1bc:	70f0e713          	ori	a4,ra,1807
 1c0:	0001                	nop
 1c2:	833a                	mv	t1,a4
 1c4:	0205                	addi	tp,tp,1 # 1 <_start+0x1>
 1c6:	4289                	li	t0,2
 1c8:	fe5216e3          	bne	tp,t0,1b4 <test_8+0x4>
 1cc:	00ff03b7          	lui	t2,0xff0
 1d0:	7ff38393          	addi	t2,t2,2047 # ff07ff <pass+0xff0559>
 1d4:	0a731d63          	bne	t1,t2,28e <fail>

000001d8 <test_9>:
 1d8:	41a5                	li	gp,9
 1da:	4201                	li	tp,0
 1dc:	f00ff0b7          	lui	ra,0xf00ff
 1e0:	00bd                	addi	ra,ra,15 # f00ff00f <__global_pointer$+0xef0fe80f>
 1e2:	0f00e713          	ori	a4,ra,240
 1e6:	0001                	nop
 1e8:	0001                	nop
 1ea:	833a                	mv	t1,a4
 1ec:	0205                	addi	tp,tp,1 # 1 <_start+0x1>
 1ee:	4289                	li	t0,2
 1f0:	fe5216e3          	bne	tp,t0,1dc <test_9+0x4>
 1f4:	f00ff3b7          	lui	t2,0xf00ff
 1f8:	0ff38393          	addi	t2,t2,255 # f00ff0ff <__global_pointer$+0xef0fe8ff>
 1fc:	08731963          	bne	t1,t2,28e <fail>

00000200 <test_10>:
 200:	41a9                	li	gp,10
 202:	4201                	li	tp,0
 204:	0ff010b7          	lui	ra,0xff01
 208:	10c1                	addi	ra,ra,-16 # ff00ff0 <__global_pointer$+0xef007f0>
 20a:	0f00e713          	ori	a4,ra,240
 20e:	0205                	addi	tp,tp,1 # 1 <_start+0x1>
 210:	4289                	li	t0,2
 212:	fe5219e3          	bne	tp,t0,204 <test_10+0x4>
 216:	0ff013b7          	lui	t2,0xff01
 21a:	13c1                	addi	t2,t2,-16 # ff00ff0 <__global_pointer$+0xef007f0>
 21c:	06771963          	bne	a4,t2,28e <fail>

00000220 <test_11>:
 220:	41ad                	li	gp,11
 222:	4201                	li	tp,0
 224:	00ff00b7          	lui	ra,0xff0
 228:	0ff08093          	addi	ra,ra,255 # ff00ff <pass+0xfefe59>
 22c:	0001                	nop
 22e:	f0f0e713          	ori	a4,ra,-241
 232:	0205                	addi	tp,tp,1 # 1 <_start+0x1>
 234:	4289                	li	t0,2
 236:	fe5217e3          	bne	tp,t0,224 <test_11+0x4>
 23a:	fff00393          	li	t2,-1
 23e:	04771863          	bne	a4,t2,28e <fail>

00000242 <test_12>:
 242:	41b1                	li	gp,12
 244:	4201                	li	tp,0
 246:	f00ff0b7          	lui	ra,0xf00ff
 24a:	00bd                	addi	ra,ra,15 # f00ff00f <__global_pointer$+0xef0fe80f>
 24c:	0001                	nop
 24e:	0001                	nop
 250:	0f00e713          	ori	a4,ra,240
 254:	0205                	addi	tp,tp,1 # 1 <_start+0x1>
 256:	4289                	li	t0,2
 258:	fe5217e3          	bne	tp,t0,246 <test_12+0x4>
 25c:	f00ff3b7          	lui	t2,0xf00ff
 260:	0ff38393          	addi	t2,t2,255 # f00ff0ff <__global_pointer$+0xef0fe8ff>
 264:	02771563          	bne	a4,t2,28e <fail>

00000268 <test_13>:
 268:	41b5                	li	gp,13
 26a:	0f006093          	ori	ra,zero,240
 26e:	0f000393          	li	t2,240
 272:	00709e63          	bne	ra,t2,28e <fail>

00000276 <test_14>:
 276:	41b9                	li	gp,14
 278:	00ff00b7          	lui	ra,0xff0
 27c:	0ff08093          	addi	ra,ra,255 # ff00ff <pass+0xfefe59>
 280:	70f0e013          	ori	zero,ra,1807
 284:	4381                	li	t2,0
 286:	00701463          	bne	zero,t2,28e <fail>
 28a:	00301e63          	bne	zero,gp,2a6 <pass>

0000028e <fail>:
 28e:	0ff0000f          	fence
 292:	00018063          	beqz	gp,292 <fail+0x4>
 296:	0186                	slli	gp,gp,0x1
 298:	0011e193          	ori	gp,gp,1
 29c:	05d00893          	li	a7,93
 2a0:	850e                	mv	a0,gp
 2a2:	00000073          	ecall

000002a6 <pass>:
 2a6:	0ff0000f          	fence
 2aa:	4185                	li	gp,1
 2ac:	05d00893          	li	a7,93
 2b0:	4501                	li	a0,0
 2b2:	00000073          	ecall
	...
