
/home/thanhtran/fpga/rv32e/tb/riscv-tests/rv32ui/sll.S.v2:     file format elf32-littleriscv


Disassembly of section .text:

00000000 <_start>:
   0:	a835                	j	3c <reset_vector>
   2:	0001                	nop

00000004 <trap_vector>:
   4:	34202f73          	csrr	t5,mcause
   8:	4fa1                	li	t6,8
   a:	03ff0463          	beq	t5,t6,32 <write_tohost>
   e:	4fa5                	li	t6,9
  10:	03ff0163          	beq	t5,t6,32 <write_tohost>
  14:	4fad                	li	t6,11
  16:	01ff0e63          	beq	t5,t6,32 <write_tohost>
  1a:	00000f13          	li	t5,0
  1e:	000f0363          	beqz	t5,24 <trap_vector+0x20>
  22:	8f02                	jr	t5
  24:	34202f73          	csrr	t5,mcause
  28:	000f5363          	bgez	t5,2e <handle_exception>
  2c:	a009                	j	2e <handle_exception>

0000002e <handle_exception>:
  2e:	5391e193          	ori	gp,gp,1337

00000032 <write_tohost>:
  32:	01000f17          	auipc	t5,0x1000
  36:	fc3f2723          	sw	gp,-50(t5) # 1000000 <__DATA_BEGIN__>
  3a:	bfe5                	j	32 <write_tohost>

0000003c <reset_vector>:
  3c:	4081                	li	ra,0
  3e:	4101                	li	sp,0
  40:	4181                	li	gp,0
  42:	4201                	li	tp,0
  44:	4281                	li	t0,0
  46:	4301                	li	t1,0
  48:	4381                	li	t2,0
  4a:	4401                	li	s0,0
  4c:	4481                	li	s1,0
  4e:	4501                	li	a0,0
  50:	4581                	li	a1,0
  52:	4601                	li	a2,0
  54:	4681                	li	a3,0
  56:	4701                	li	a4,0
  58:	4781                	li	a5,0
  5a:	4801                	li	a6,0
  5c:	4881                	li	a7,0
  5e:	4901                	li	s2,0
  60:	4981                	li	s3,0
  62:	4a01                	li	s4,0
  64:	4a81                	li	s5,0
  66:	4b01                	li	s6,0
  68:	4b81                	li	s7,0
  6a:	4c01                	li	s8,0
  6c:	4c81                	li	s9,0
  6e:	4d01                	li	s10,0
  70:	4d81                	li	s11,0
  72:	4e01                	li	t3,0
  74:	4e81                	li	t4,0
  76:	4f01                	li	t5,0
  78:	4f81                	li	t6,0
  7a:	f1402573          	csrr	a0,mhartid
  7e:	e101                	bnez	a0,7e <reset_vector+0x42>
  80:	00000297          	auipc	t0,0x0
  84:	01028293          	addi	t0,t0,16 # 90 <reset_vector+0x54>
  88:	30529073          	csrw	mtvec,t0
  8c:	18005073          	csrwi	satp,0
  90:	00000297          	auipc	t0,0x0
  94:	01c28293          	addi	t0,t0,28 # ac <reset_vector+0x70>
  98:	30529073          	csrw	mtvec,t0
  9c:	800002b7          	lui	t0,0x80000
  a0:	12fd                	addi	t0,t0,-1 # 7fffffff <__global_pointer$+0x7efff7ff>
  a2:	3b029073          	csrw	pmpaddr0,t0
  a6:	42fd                	li	t0,31
  a8:	3a029073          	csrw	pmpcfg0,t0
  ac:	30405073          	csrwi	mie,0
  b0:	00000297          	auipc	t0,0x0
  b4:	01428293          	addi	t0,t0,20 # c4 <reset_vector+0x88>
  b8:	30529073          	csrw	mtvec,t0
  bc:	30205073          	csrwi	medeleg,0
  c0:	30305073          	csrwi	mideleg,0
  c4:	4181                	li	gp,0
  c6:	00000297          	auipc	t0,0x0
  ca:	f3e28293          	addi	t0,t0,-194 # 4 <trap_vector>
  ce:	30529073          	csrw	mtvec,t0
  d2:	4505                	li	a0,1
  d4:	057e                	slli	a0,a0,0x1f
  d6:	00054a63          	bltz	a0,ea <reset_vector+0xae>
  da:	0ff0000f          	fence
  de:	4185                	li	gp,1
  e0:	05d00893          	li	a7,93
  e4:	4501                	li	a0,0
  e6:	00000073          	ecall
  ea:	00000293          	li	t0,0
  ee:	00028963          	beqz	t0,100 <reset_vector+0xc4>
  f2:	10529073          	csrw	stvec,t0
  f6:	62ad                	lui	t0,0xb
  f8:	10928293          	addi	t0,t0,265 # b109 <pass+0xabd5>
  fc:	30229073          	csrw	medeleg,t0
 100:	30005073          	csrwi	mstatus,0
 104:	00000297          	auipc	t0,0x0
 108:	01428293          	addi	t0,t0,20 # 118 <test_2>
 10c:	34129073          	csrw	mepc,t0
 110:	f1402573          	csrr	a0,mhartid
 114:	30200073          	mret

00000118 <test_2>:
 118:	4189                	li	gp,2
 11a:	4585                	li	a1,1
 11c:	4601                	li	a2,0
 11e:	00c59733          	sll	a4,a1,a2
 122:	4385                	li	t2,1
 124:	3e771c63          	bne	a4,t2,51c <fail>

00000128 <test_3>:
 128:	418d                	li	gp,3
 12a:	4585                	li	a1,1
 12c:	4605                	li	a2,1
 12e:	00c59733          	sll	a4,a1,a2
 132:	4389                	li	t2,2
 134:	3e771463          	bne	a4,t2,51c <fail>

00000138 <test_4>:
 138:	4191                	li	gp,4
 13a:	4585                	li	a1,1
 13c:	461d                	li	a2,7
 13e:	00c59733          	sll	a4,a1,a2
 142:	08000393          	li	t2,128
 146:	3c771b63          	bne	a4,t2,51c <fail>

0000014a <test_5>:
 14a:	4195                	li	gp,5
 14c:	4585                	li	a1,1
 14e:	4639                	li	a2,14
 150:	00c59733          	sll	a4,a1,a2
 154:	6391                	lui	t2,0x4
 156:	3c771363          	bne	a4,t2,51c <fail>

0000015a <test_6>:
 15a:	4199                	li	gp,6
 15c:	4585                	li	a1,1
 15e:	467d                	li	a2,31
 160:	00c59733          	sll	a4,a1,a2
 164:	800003b7          	lui	t2,0x80000
 168:	3a771a63          	bne	a4,t2,51c <fail>

0000016c <test_7>:
 16c:	419d                	li	gp,7
 16e:	fff00593          	li	a1,-1
 172:	4601                	li	a2,0
 174:	00c59733          	sll	a4,a1,a2
 178:	fff00393          	li	t2,-1
 17c:	3a771063          	bne	a4,t2,51c <fail>

00000180 <test_8>:
 180:	41a1                	li	gp,8
 182:	fff00593          	li	a1,-1
 186:	4605                	li	a2,1
 188:	00c59733          	sll	a4,a1,a2
 18c:	ffe00393          	li	t2,-2
 190:	38771663          	bne	a4,t2,51c <fail>

00000194 <test_9>:
 194:	41a5                	li	gp,9
 196:	fff00593          	li	a1,-1
 19a:	461d                	li	a2,7
 19c:	00c59733          	sll	a4,a1,a2
 1a0:	f8000393          	li	t2,-128
 1a4:	36771c63          	bne	a4,t2,51c <fail>

000001a8 <test_10>:
 1a8:	41a9                	li	gp,10
 1aa:	fff00593          	li	a1,-1
 1ae:	4639                	li	a2,14
 1b0:	00c59733          	sll	a4,a1,a2
 1b4:	73f1                	lui	t2,0xffffc
 1b6:	36771363          	bne	a4,t2,51c <fail>

000001ba <test_11>:
 1ba:	41ad                	li	gp,11
 1bc:	fff00593          	li	a1,-1
 1c0:	467d                	li	a2,31
 1c2:	00c59733          	sll	a4,a1,a2
 1c6:	800003b7          	lui	t2,0x80000
 1ca:	34771963          	bne	a4,t2,51c <fail>

000001ce <test_12>:
 1ce:	41b1                	li	gp,12
 1d0:	212125b7          	lui	a1,0x21212
 1d4:	12158593          	addi	a1,a1,289 # 21212121 <__global_pointer$+0x20211921>
 1d8:	4601                	li	a2,0
 1da:	00c59733          	sll	a4,a1,a2
 1de:	212123b7          	lui	t2,0x21212
 1e2:	12138393          	addi	t2,t2,289 # 21212121 <__global_pointer$+0x20211921>
 1e6:	32771b63          	bne	a4,t2,51c <fail>

000001ea <test_13>:
 1ea:	41b5                	li	gp,13
 1ec:	212125b7          	lui	a1,0x21212
 1f0:	12158593          	addi	a1,a1,289 # 21212121 <__global_pointer$+0x20211921>
 1f4:	4605                	li	a2,1
 1f6:	00c59733          	sll	a4,a1,a2
 1fa:	424243b7          	lui	t2,0x42424
 1fe:	24238393          	addi	t2,t2,578 # 42424242 <__global_pointer$+0x41423a42>
 202:	30771d63          	bne	a4,t2,51c <fail>

00000206 <test_14>:
 206:	41b9                	li	gp,14
 208:	212125b7          	lui	a1,0x21212
 20c:	12158593          	addi	a1,a1,289 # 21212121 <__global_pointer$+0x20211921>
 210:	461d                	li	a2,7
 212:	00c59733          	sll	a4,a1,a2
 216:	909093b7          	lui	t2,0x90909
 21a:	08038393          	addi	t2,t2,128 # 90909080 <__global_pointer$+0x8f908880>
 21e:	2e771f63          	bne	a4,t2,51c <fail>

00000222 <test_15>:
 222:	41bd                	li	gp,15
 224:	212125b7          	lui	a1,0x21212
 228:	12158593          	addi	a1,a1,289 # 21212121 <__global_pointer$+0x20211921>
 22c:	4639                	li	a2,14
 22e:	00c59733          	sll	a4,a1,a2
 232:	484843b7          	lui	t2,0x48484
 236:	2e771363          	bne	a4,t2,51c <fail>

0000023a <test_16>:
 23a:	41c1                	li	gp,16
 23c:	212125b7          	lui	a1,0x21212
 240:	12158593          	addi	a1,a1,289 # 21212121 <__global_pointer$+0x20211921>
 244:	467d                	li	a2,31
 246:	00c59733          	sll	a4,a1,a2
 24a:	800003b7          	lui	t2,0x80000
 24e:	2c771763          	bne	a4,t2,51c <fail>

00000252 <test_17>:
 252:	41c5                	li	gp,17
 254:	212125b7          	lui	a1,0x21212
 258:	12158593          	addi	a1,a1,289 # 21212121 <__global_pointer$+0x20211921>
 25c:	fc000613          	li	a2,-64
 260:	00c59733          	sll	a4,a1,a2
 264:	212123b7          	lui	t2,0x21212
 268:	12138393          	addi	t2,t2,289 # 21212121 <__global_pointer$+0x20211921>
 26c:	2a771863          	bne	a4,t2,51c <fail>

00000270 <test_18>:
 270:	41c9                	li	gp,18
 272:	212125b7          	lui	a1,0x21212
 276:	12158593          	addi	a1,a1,289 # 21212121 <__global_pointer$+0x20211921>
 27a:	fc100613          	li	a2,-63
 27e:	00c59733          	sll	a4,a1,a2
 282:	424243b7          	lui	t2,0x42424
 286:	24238393          	addi	t2,t2,578 # 42424242 <__global_pointer$+0x41423a42>
 28a:	28771963          	bne	a4,t2,51c <fail>

0000028e <test_19>:
 28e:	41cd                	li	gp,19
 290:	212125b7          	lui	a1,0x21212
 294:	12158593          	addi	a1,a1,289 # 21212121 <__global_pointer$+0x20211921>
 298:	fc700613          	li	a2,-57
 29c:	00c59733          	sll	a4,a1,a2
 2a0:	909093b7          	lui	t2,0x90909
 2a4:	08038393          	addi	t2,t2,128 # 90909080 <__global_pointer$+0x8f908880>
 2a8:	26771a63          	bne	a4,t2,51c <fail>

000002ac <test_20>:
 2ac:	41d1                	li	gp,20
 2ae:	212125b7          	lui	a1,0x21212
 2b2:	12158593          	addi	a1,a1,289 # 21212121 <__global_pointer$+0x20211921>
 2b6:	fce00613          	li	a2,-50
 2ba:	00c59733          	sll	a4,a1,a2
 2be:	484843b7          	lui	t2,0x48484
 2c2:	24771d63          	bne	a4,t2,51c <fail>

000002c6 <test_22>:
 2c6:	41d9                	li	gp,22
 2c8:	4585                	li	a1,1
 2ca:	461d                	li	a2,7
 2cc:	00c595b3          	sll	a1,a1,a2
 2d0:	08000393          	li	t2,128
 2d4:	24759463          	bne	a1,t2,51c <fail>

000002d8 <test_23>:
 2d8:	41dd                	li	gp,23
 2da:	4585                	li	a1,1
 2dc:	4639                	li	a2,14
 2de:	00c59633          	sll	a2,a1,a2
 2e2:	6391                	lui	t2,0x4
 2e4:	22761c63          	bne	a2,t2,51c <fail>

000002e8 <test_24>:
 2e8:	41e1                	li	gp,24
 2ea:	458d                	li	a1,3
 2ec:	00b595b3          	sll	a1,a1,a1
 2f0:	43e1                	li	t2,24
 2f2:	22759563          	bne	a1,t2,51c <fail>

000002f6 <test_25>:
 2f6:	41e5                	li	gp,25
 2f8:	4201                	li	tp,0
 2fa:	4085                	li	ra,1
 2fc:	411d                	li	sp,7
 2fe:	00209733          	sll	a4,ra,sp
 302:	833a                	mv	t1,a4
 304:	0205                	addi	tp,tp,1 # 1 <_start+0x1>
 306:	4289                	li	t0,2
 308:	fe5219e3          	bne	tp,t0,2fa <test_25+0x4>
 30c:	08000393          	li	t2,128
 310:	20731663          	bne	t1,t2,51c <fail>

00000314 <test_26>:
 314:	41e9                	li	gp,26
 316:	4201                	li	tp,0
 318:	4085                	li	ra,1
 31a:	4139                	li	sp,14
 31c:	00209733          	sll	a4,ra,sp
 320:	0001                	nop
 322:	833a                	mv	t1,a4
 324:	0205                	addi	tp,tp,1 # 1 <_start+0x1>
 326:	4289                	li	t0,2
 328:	fe5218e3          	bne	tp,t0,318 <test_26+0x4>
 32c:	6391                	lui	t2,0x4
 32e:	1e731763          	bne	t1,t2,51c <fail>

00000332 <test_27>:
 332:	41ed                	li	gp,27
 334:	4201                	li	tp,0
 336:	4085                	li	ra,1
 338:	417d                	li	sp,31
 33a:	00209733          	sll	a4,ra,sp
 33e:	0001                	nop
 340:	0001                	nop
 342:	833a                	mv	t1,a4
 344:	0205                	addi	tp,tp,1 # 1 <_start+0x1>
 346:	4289                	li	t0,2
 348:	fe5217e3          	bne	tp,t0,336 <test_27+0x4>
 34c:	800003b7          	lui	t2,0x80000
 350:	1c731663          	bne	t1,t2,51c <fail>

00000354 <test_28>:
 354:	41f1                	li	gp,28
 356:	4201                	li	tp,0
 358:	4085                	li	ra,1
 35a:	411d                	li	sp,7
 35c:	00209733          	sll	a4,ra,sp
 360:	0205                	addi	tp,tp,1 # 1 <_start+0x1>
 362:	4289                	li	t0,2
 364:	fe521ae3          	bne	tp,t0,358 <test_28+0x4>
 368:	08000393          	li	t2,128
 36c:	1a771863          	bne	a4,t2,51c <fail>

00000370 <test_29>:
 370:	41f5                	li	gp,29
 372:	4201                	li	tp,0
 374:	4085                	li	ra,1
 376:	4139                	li	sp,14
 378:	0001                	nop
 37a:	00209733          	sll	a4,ra,sp
 37e:	0205                	addi	tp,tp,1 # 1 <_start+0x1>
 380:	4289                	li	t0,2
 382:	fe5219e3          	bne	tp,t0,374 <test_29+0x4>
 386:	6391                	lui	t2,0x4
 388:	18771a63          	bne	a4,t2,51c <fail>

0000038c <test_30>:
 38c:	41f9                	li	gp,30
 38e:	4201                	li	tp,0
 390:	4085                	li	ra,1
 392:	417d                	li	sp,31
 394:	0001                	nop
 396:	0001                	nop
 398:	00209733          	sll	a4,ra,sp
 39c:	0205                	addi	tp,tp,1 # 1 <_start+0x1>
 39e:	4289                	li	t0,2
 3a0:	fe5218e3          	bne	tp,t0,390 <test_30+0x4>
 3a4:	800003b7          	lui	t2,0x80000
 3a8:	16771a63          	bne	a4,t2,51c <fail>

000003ac <test_31>:
 3ac:	41fd                	li	gp,31
 3ae:	4201                	li	tp,0
 3b0:	4085                	li	ra,1
 3b2:	0001                	nop
 3b4:	411d                	li	sp,7
 3b6:	00209733          	sll	a4,ra,sp
 3ba:	0205                	addi	tp,tp,1 # 1 <_start+0x1>
 3bc:	4289                	li	t0,2
 3be:	fe5219e3          	bne	tp,t0,3b0 <test_31+0x4>
 3c2:	08000393          	li	t2,128
 3c6:	14771b63          	bne	a4,t2,51c <fail>

000003ca <test_32>:
 3ca:	02000193          	li	gp,32
 3ce:	4201                	li	tp,0
 3d0:	4085                	li	ra,1
 3d2:	0001                	nop
 3d4:	4139                	li	sp,14
 3d6:	0001                	nop
 3d8:	00209733          	sll	a4,ra,sp
 3dc:	0205                	addi	tp,tp,1 # 1 <_start+0x1>
 3de:	4289                	li	t0,2
 3e0:	fe5218e3          	bne	tp,t0,3d0 <test_32+0x6>
 3e4:	6391                	lui	t2,0x4
 3e6:	12771b63          	bne	a4,t2,51c <fail>

000003ea <test_33>:
 3ea:	02100193          	li	gp,33
 3ee:	4201                	li	tp,0
 3f0:	4085                	li	ra,1
 3f2:	0001                	nop
 3f4:	0001                	nop
 3f6:	417d                	li	sp,31
 3f8:	00209733          	sll	a4,ra,sp
 3fc:	0205                	addi	tp,tp,1 # 1 <_start+0x1>
 3fe:	4289                	li	t0,2
 400:	fe5218e3          	bne	tp,t0,3f0 <test_33+0x6>
 404:	800003b7          	lui	t2,0x80000
 408:	10771a63          	bne	a4,t2,51c <fail>

0000040c <test_34>:
 40c:	02200193          	li	gp,34
 410:	4201                	li	tp,0
 412:	411d                	li	sp,7
 414:	4085                	li	ra,1
 416:	00209733          	sll	a4,ra,sp
 41a:	0205                	addi	tp,tp,1 # 1 <_start+0x1>
 41c:	4289                	li	t0,2
 41e:	fe521ae3          	bne	tp,t0,412 <test_34+0x6>
 422:	08000393          	li	t2,128
 426:	0e771b63          	bne	a4,t2,51c <fail>

0000042a <test_35>:
 42a:	02300193          	li	gp,35
 42e:	4201                	li	tp,0
 430:	4139                	li	sp,14
 432:	4085                	li	ra,1
 434:	0001                	nop
 436:	00209733          	sll	a4,ra,sp
 43a:	0205                	addi	tp,tp,1 # 1 <_start+0x1>
 43c:	4289                	li	t0,2
 43e:	fe5219e3          	bne	tp,t0,430 <test_35+0x6>
 442:	6391                	lui	t2,0x4
 444:	0c771c63          	bne	a4,t2,51c <fail>

00000448 <test_36>:
 448:	02400193          	li	gp,36
 44c:	4201                	li	tp,0
 44e:	417d                	li	sp,31
 450:	4085                	li	ra,1
 452:	0001                	nop
 454:	0001                	nop
 456:	00209733          	sll	a4,ra,sp
 45a:	0205                	addi	tp,tp,1 # 1 <_start+0x1>
 45c:	4289                	li	t0,2
 45e:	fe5218e3          	bne	tp,t0,44e <test_36+0x6>
 462:	800003b7          	lui	t2,0x80000
 466:	0a771b63          	bne	a4,t2,51c <fail>

0000046a <test_37>:
 46a:	02500193          	li	gp,37
 46e:	4201                	li	tp,0
 470:	411d                	li	sp,7
 472:	0001                	nop
 474:	4085                	li	ra,1
 476:	00209733          	sll	a4,ra,sp
 47a:	0205                	addi	tp,tp,1 # 1 <_start+0x1>
 47c:	4289                	li	t0,2
 47e:	fe5219e3          	bne	tp,t0,470 <test_37+0x6>
 482:	08000393          	li	t2,128
 486:	08771b63          	bne	a4,t2,51c <fail>

0000048a <test_38>:
 48a:	02600193          	li	gp,38
 48e:	4201                	li	tp,0
 490:	4139                	li	sp,14
 492:	0001                	nop
 494:	4085                	li	ra,1
 496:	0001                	nop
 498:	00209733          	sll	a4,ra,sp
 49c:	0205                	addi	tp,tp,1 # 1 <_start+0x1>
 49e:	4289                	li	t0,2
 4a0:	fe5218e3          	bne	tp,t0,490 <test_38+0x6>
 4a4:	6391                	lui	t2,0x4
 4a6:	06771b63          	bne	a4,t2,51c <fail>

000004aa <test_39>:
 4aa:	02700193          	li	gp,39
 4ae:	4201                	li	tp,0
 4b0:	417d                	li	sp,31
 4b2:	0001                	nop
 4b4:	0001                	nop
 4b6:	4085                	li	ra,1
 4b8:	00209733          	sll	a4,ra,sp
 4bc:	0205                	addi	tp,tp,1 # 1 <_start+0x1>
 4be:	4289                	li	t0,2
 4c0:	fe5218e3          	bne	tp,t0,4b0 <test_39+0x6>
 4c4:	800003b7          	lui	t2,0x80000
 4c8:	04771a63          	bne	a4,t2,51c <fail>

000004cc <test_40>:
 4cc:	02800193          	li	gp,40
 4d0:	40bd                	li	ra,15
 4d2:	00101133          	sll	sp,zero,ra
 4d6:	4381                	li	t2,0
 4d8:	04711263          	bne	sp,t2,51c <fail>

000004dc <test_41>:
 4dc:	02900193          	li	gp,41
 4e0:	02000093          	li	ra,32
 4e4:	00009133          	sll	sp,ra,zero
 4e8:	02000393          	li	t2,32
 4ec:	02711863          	bne	sp,t2,51c <fail>

000004f0 <test_42>:
 4f0:	02a00193          	li	gp,42
 4f4:	000010b3          	sll	ra,zero,zero
 4f8:	4381                	li	t2,0
 4fa:	02709163          	bne	ra,t2,51c <fail>

000004fe <test_43>:
 4fe:	02b00193          	li	gp,43
 502:	40000093          	li	ra,1024
 506:	00001137          	lui	sp,0x1
 50a:	80010113          	addi	sp,sp,-2048 # 800 <pass+0x2cc>
 50e:	00209033          	sll	zero,ra,sp
 512:	4381                	li	t2,0
 514:	00701463          	bne	zero,t2,51c <fail>
 518:	00301e63          	bne	zero,gp,534 <pass>

0000051c <fail>:
 51c:	0ff0000f          	fence
 520:	00018063          	beqz	gp,520 <fail+0x4>
 524:	0186                	slli	gp,gp,0x1
 526:	0011e193          	ori	gp,gp,1
 52a:	05d00893          	li	a7,93
 52e:	850e                	mv	a0,gp
 530:	00000073          	ecall

00000534 <pass>:
 534:	0ff0000f          	fence
 538:	4185                	li	gp,1
 53a:	05d00893          	li	a7,93
 53e:	4501                	li	a0,0
 540:	00000073          	ecall
	...
