
/home/thanhtran/fpga/rv32e/tb/riscv-tests/rv32ui/sra.S.v2:     file format elf32-littleriscv


Disassembly of section .text:

00000000 <_start>:
   0:	a835                	j	3c <reset_vector>
   2:	0001                	nop

00000004 <trap_vector>:
   4:	34202f73          	csrr	t5,mcause
   8:	4fa1                	li	t6,8
   a:	03ff0463          	beq	t5,t6,32 <write_tohost>
   e:	4fa5                	li	t6,9
  10:	03ff0163          	beq	t5,t6,32 <write_tohost>
  14:	4fad                	li	t6,11
  16:	01ff0e63          	beq	t5,t6,32 <write_tohost>
  1a:	00000f13          	li	t5,0
  1e:	000f0363          	beqz	t5,24 <trap_vector+0x20>
  22:	8f02                	jr	t5
  24:	34202f73          	csrr	t5,mcause
  28:	000f5363          	bgez	t5,2e <handle_exception>
  2c:	a009                	j	2e <handle_exception>

0000002e <handle_exception>:
  2e:	5391e193          	ori	gp,gp,1337

00000032 <write_tohost>:
  32:	01000f17          	auipc	t5,0x1000
  36:	fc3f2723          	sw	gp,-50(t5) # 1000000 <__DATA_BEGIN__>
  3a:	bfe5                	j	32 <write_tohost>

0000003c <reset_vector>:
  3c:	4081                	li	ra,0
  3e:	4101                	li	sp,0
  40:	4181                	li	gp,0
  42:	4201                	li	tp,0
  44:	4281                	li	t0,0
  46:	4301                	li	t1,0
  48:	4381                	li	t2,0
  4a:	4401                	li	s0,0
  4c:	4481                	li	s1,0
  4e:	4501                	li	a0,0
  50:	4581                	li	a1,0
  52:	4601                	li	a2,0
  54:	4681                	li	a3,0
  56:	4701                	li	a4,0
  58:	4781                	li	a5,0
  5a:	4801                	li	a6,0
  5c:	4881                	li	a7,0
  5e:	4901                	li	s2,0
  60:	4981                	li	s3,0
  62:	4a01                	li	s4,0
  64:	4a81                	li	s5,0
  66:	4b01                	li	s6,0
  68:	4b81                	li	s7,0
  6a:	4c01                	li	s8,0
  6c:	4c81                	li	s9,0
  6e:	4d01                	li	s10,0
  70:	4d81                	li	s11,0
  72:	4e01                	li	t3,0
  74:	4e81                	li	t4,0
  76:	4f01                	li	t5,0
  78:	4f81                	li	t6,0
  7a:	f1402573          	csrr	a0,mhartid
  7e:	e101                	bnez	a0,7e <reset_vector+0x42>
  80:	00000297          	auipc	t0,0x0
  84:	01028293          	addi	t0,t0,16 # 90 <reset_vector+0x54>
  88:	30529073          	csrw	mtvec,t0
  8c:	18005073          	csrwi	satp,0
  90:	00000297          	auipc	t0,0x0
  94:	01c28293          	addi	t0,t0,28 # ac <reset_vector+0x70>
  98:	30529073          	csrw	mtvec,t0
  9c:	800002b7          	lui	t0,0x80000
  a0:	12fd                	addi	t0,t0,-1 # 7fffffff <__global_pointer$+0x7efff7ff>
  a2:	3b029073          	csrw	pmpaddr0,t0
  a6:	42fd                	li	t0,31
  a8:	3a029073          	csrw	pmpcfg0,t0
  ac:	30405073          	csrwi	mie,0
  b0:	00000297          	auipc	t0,0x0
  b4:	01428293          	addi	t0,t0,20 # c4 <reset_vector+0x88>
  b8:	30529073          	csrw	mtvec,t0
  bc:	30205073          	csrwi	medeleg,0
  c0:	30305073          	csrwi	mideleg,0
  c4:	4181                	li	gp,0
  c6:	00000297          	auipc	t0,0x0
  ca:	f3e28293          	addi	t0,t0,-194 # 4 <trap_vector>
  ce:	30529073          	csrw	mtvec,t0
  d2:	4505                	li	a0,1
  d4:	057e                	slli	a0,a0,0x1f
  d6:	00054a63          	bltz	a0,ea <reset_vector+0xae>
  da:	0ff0000f          	fence
  de:	4185                	li	gp,1
  e0:	05d00893          	li	a7,93
  e4:	4501                	li	a0,0
  e6:	00000073          	ecall
  ea:	00000293          	li	t0,0
  ee:	00028963          	beqz	t0,100 <reset_vector+0xc4>
  f2:	10529073          	csrw	stvec,t0
  f6:	62ad                	lui	t0,0xb
  f8:	10928293          	addi	t0,t0,265 # b109 <pass+0xab73>
  fc:	30229073          	csrw	medeleg,t0
 100:	30005073          	csrwi	mstatus,0
 104:	00000297          	auipc	t0,0x0
 108:	01428293          	addi	t0,t0,20 # 118 <test_2>
 10c:	34129073          	csrw	mepc,t0
 110:	f1402573          	csrr	a0,mhartid
 114:	30200073          	mret

00000118 <test_2>:
 118:	4189                	li	gp,2
 11a:	800005b7          	lui	a1,0x80000
 11e:	4601                	li	a2,0
 120:	40c5d733          	sra	a4,a1,a2
 124:	800003b7          	lui	t2,0x80000
 128:	44771b63          	bne	a4,t2,57e <fail>

0000012c <test_3>:
 12c:	418d                	li	gp,3
 12e:	800005b7          	lui	a1,0x80000
 132:	4605                	li	a2,1
 134:	40c5d733          	sra	a4,a1,a2
 138:	c00003b7          	lui	t2,0xc0000
 13c:	44771163          	bne	a4,t2,57e <fail>

00000140 <test_4>:
 140:	4191                	li	gp,4
 142:	800005b7          	lui	a1,0x80000
 146:	461d                	li	a2,7
 148:	40c5d733          	sra	a4,a1,a2
 14c:	ff0003b7          	lui	t2,0xff000
 150:	42771763          	bne	a4,t2,57e <fail>

00000154 <test_5>:
 154:	4195                	li	gp,5
 156:	800005b7          	lui	a1,0x80000
 15a:	4639                	li	a2,14
 15c:	40c5d733          	sra	a4,a1,a2
 160:	7381                	lui	t2,0xfffe0
 162:	40771e63          	bne	a4,t2,57e <fail>

00000166 <test_6>:
 166:	4199                	li	gp,6
 168:	800005b7          	lui	a1,0x80000
 16c:	0585                	addi	a1,a1,1 # 80000001 <__global_pointer$+0x7efff801>
 16e:	467d                	li	a2,31
 170:	40c5d733          	sra	a4,a1,a2
 174:	fff00393          	li	t2,-1
 178:	40771363          	bne	a4,t2,57e <fail>

0000017c <test_7>:
 17c:	419d                	li	gp,7
 17e:	800005b7          	lui	a1,0x80000
 182:	15fd                	addi	a1,a1,-1 # 7fffffff <__global_pointer$+0x7efff7ff>
 184:	4601                	li	a2,0
 186:	40c5d733          	sra	a4,a1,a2
 18a:	800003b7          	lui	t2,0x80000
 18e:	13fd                	addi	t2,t2,-1 # 7fffffff <__global_pointer$+0x7efff7ff>
 190:	3e771763          	bne	a4,t2,57e <fail>

00000194 <test_8>:
 194:	41a1                	li	gp,8
 196:	800005b7          	lui	a1,0x80000
 19a:	15fd                	addi	a1,a1,-1 # 7fffffff <__global_pointer$+0x7efff7ff>
 19c:	4605                	li	a2,1
 19e:	40c5d733          	sra	a4,a1,a2
 1a2:	400003b7          	lui	t2,0x40000
 1a6:	13fd                	addi	t2,t2,-1 # 3fffffff <__global_pointer$+0x3efff7ff>
 1a8:	3c771b63          	bne	a4,t2,57e <fail>

000001ac <test_9>:
 1ac:	41a5                	li	gp,9
 1ae:	800005b7          	lui	a1,0x80000
 1b2:	15fd                	addi	a1,a1,-1 # 7fffffff <__global_pointer$+0x7efff7ff>
 1b4:	461d                	li	a2,7
 1b6:	40c5d733          	sra	a4,a1,a2
 1ba:	010003b7          	lui	t2,0x1000
 1be:	13fd                	addi	t2,t2,-1 # ffffff <pass+0xfffa69>
 1c0:	3a771f63          	bne	a4,t2,57e <fail>

000001c4 <test_10>:
 1c4:	41a9                	li	gp,10
 1c6:	800005b7          	lui	a1,0x80000
 1ca:	15fd                	addi	a1,a1,-1 # 7fffffff <__global_pointer$+0x7efff7ff>
 1cc:	4639                	li	a2,14
 1ce:	40c5d733          	sra	a4,a1,a2
 1d2:	000203b7          	lui	t2,0x20
 1d6:	13fd                	addi	t2,t2,-1 # 1ffff <pass+0x1fa69>
 1d8:	3a771363          	bne	a4,t2,57e <fail>

000001dc <test_11>:
 1dc:	41ad                	li	gp,11
 1de:	800005b7          	lui	a1,0x80000
 1e2:	15fd                	addi	a1,a1,-1 # 7fffffff <__global_pointer$+0x7efff7ff>
 1e4:	467d                	li	a2,31
 1e6:	40c5d733          	sra	a4,a1,a2
 1ea:	4381                	li	t2,0
 1ec:	38771963          	bne	a4,t2,57e <fail>

000001f0 <test_12>:
 1f0:	41b1                	li	gp,12
 1f2:	818185b7          	lui	a1,0x81818
 1f6:	18158593          	addi	a1,a1,385 # 81818181 <__global_pointer$+0x80817981>
 1fa:	4601                	li	a2,0
 1fc:	40c5d733          	sra	a4,a1,a2
 200:	818183b7          	lui	t2,0x81818
 204:	18138393          	addi	t2,t2,385 # 81818181 <__global_pointer$+0x80817981>
 208:	36771b63          	bne	a4,t2,57e <fail>

0000020c <test_13>:
 20c:	41b5                	li	gp,13
 20e:	818185b7          	lui	a1,0x81818
 212:	18158593          	addi	a1,a1,385 # 81818181 <__global_pointer$+0x80817981>
 216:	4605                	li	a2,1
 218:	40c5d733          	sra	a4,a1,a2
 21c:	c0c0c3b7          	lui	t2,0xc0c0c
 220:	0c038393          	addi	t2,t2,192 # c0c0c0c0 <__global_pointer$+0xbfc0b8c0>
 224:	34771d63          	bne	a4,t2,57e <fail>

00000228 <test_14>:
 228:	41b9                	li	gp,14
 22a:	818185b7          	lui	a1,0x81818
 22e:	18158593          	addi	a1,a1,385 # 81818181 <__global_pointer$+0x80817981>
 232:	461d                	li	a2,7
 234:	40c5d733          	sra	a4,a1,a2
 238:	ff0303b7          	lui	t2,0xff030
 23c:	30338393          	addi	t2,t2,771 # ff030303 <__global_pointer$+0xfe02fb03>
 240:	32771f63          	bne	a4,t2,57e <fail>

00000244 <test_15>:
 244:	41bd                	li	gp,15
 246:	818185b7          	lui	a1,0x81818
 24a:	18158593          	addi	a1,a1,385 # 81818181 <__global_pointer$+0x80817981>
 24e:	4639                	li	a2,14
 250:	40c5d733          	sra	a4,a1,a2
 254:	7381                	lui	t2,0xfffe0
 256:	60638393          	addi	t2,t2,1542 # fffe0606 <__global_pointer$+0xfefdfe06>
 25a:	32771263          	bne	a4,t2,57e <fail>

0000025e <test_16>:
 25e:	41c1                	li	gp,16
 260:	818185b7          	lui	a1,0x81818
 264:	18158593          	addi	a1,a1,385 # 81818181 <__global_pointer$+0x80817981>
 268:	467d                	li	a2,31
 26a:	40c5d733          	sra	a4,a1,a2
 26e:	fff00393          	li	t2,-1
 272:	30771663          	bne	a4,t2,57e <fail>

00000276 <test_17>:
 276:	41c5                	li	gp,17
 278:	818185b7          	lui	a1,0x81818
 27c:	18158593          	addi	a1,a1,385 # 81818181 <__global_pointer$+0x80817981>
 280:	fc000613          	li	a2,-64
 284:	40c5d733          	sra	a4,a1,a2
 288:	818183b7          	lui	t2,0x81818
 28c:	18138393          	addi	t2,t2,385 # 81818181 <__global_pointer$+0x80817981>
 290:	2e771763          	bne	a4,t2,57e <fail>

00000294 <test_18>:
 294:	41c9                	li	gp,18
 296:	818185b7          	lui	a1,0x81818
 29a:	18158593          	addi	a1,a1,385 # 81818181 <__global_pointer$+0x80817981>
 29e:	fc100613          	li	a2,-63
 2a2:	40c5d733          	sra	a4,a1,a2
 2a6:	c0c0c3b7          	lui	t2,0xc0c0c
 2aa:	0c038393          	addi	t2,t2,192 # c0c0c0c0 <__global_pointer$+0xbfc0b8c0>
 2ae:	2c771863          	bne	a4,t2,57e <fail>

000002b2 <test_19>:
 2b2:	41cd                	li	gp,19
 2b4:	818185b7          	lui	a1,0x81818
 2b8:	18158593          	addi	a1,a1,385 # 81818181 <__global_pointer$+0x80817981>
 2bc:	fc700613          	li	a2,-57
 2c0:	40c5d733          	sra	a4,a1,a2
 2c4:	ff0303b7          	lui	t2,0xff030
 2c8:	30338393          	addi	t2,t2,771 # ff030303 <__global_pointer$+0xfe02fb03>
 2cc:	2a771963          	bne	a4,t2,57e <fail>

000002d0 <test_20>:
 2d0:	41d1                	li	gp,20
 2d2:	818185b7          	lui	a1,0x81818
 2d6:	18158593          	addi	a1,a1,385 # 81818181 <__global_pointer$+0x80817981>
 2da:	fce00613          	li	a2,-50
 2de:	40c5d733          	sra	a4,a1,a2
 2e2:	7381                	lui	t2,0xfffe0
 2e4:	60638393          	addi	t2,t2,1542 # fffe0606 <__global_pointer$+0xfefdfe06>
 2e8:	28771b63          	bne	a4,t2,57e <fail>

000002ec <test_21>:
 2ec:	41d5                	li	gp,21
 2ee:	818185b7          	lui	a1,0x81818
 2f2:	18158593          	addi	a1,a1,385 # 81818181 <__global_pointer$+0x80817981>
 2f6:	fff00613          	li	a2,-1
 2fa:	40c5d733          	sra	a4,a1,a2
 2fe:	fff00393          	li	t2,-1
 302:	26771e63          	bne	a4,t2,57e <fail>

00000306 <test_22>:
 306:	41d9                	li	gp,22
 308:	800005b7          	lui	a1,0x80000
 30c:	461d                	li	a2,7
 30e:	40c5d5b3          	sra	a1,a1,a2
 312:	ff0003b7          	lui	t2,0xff000
 316:	26759463          	bne	a1,t2,57e <fail>

0000031a <test_23>:
 31a:	41dd                	li	gp,23
 31c:	800005b7          	lui	a1,0x80000
 320:	4639                	li	a2,14
 322:	40c5d633          	sra	a2,a1,a2
 326:	7381                	lui	t2,0xfffe0
 328:	24761b63          	bne	a2,t2,57e <fail>

0000032c <test_24>:
 32c:	41e1                	li	gp,24
 32e:	459d                	li	a1,7
 330:	40b5d5b3          	sra	a1,a1,a1
 334:	4381                	li	t2,0
 336:	24759463          	bne	a1,t2,57e <fail>

0000033a <test_25>:
 33a:	41e5                	li	gp,25
 33c:	4201                	li	tp,0
 33e:	800000b7          	lui	ra,0x80000
 342:	411d                	li	sp,7
 344:	4020d733          	sra	a4,ra,sp
 348:	833a                	mv	t1,a4
 34a:	0205                	addi	tp,tp,1 # 1 <_start+0x1>
 34c:	4289                	li	t0,2
 34e:	fe5218e3          	bne	tp,t0,33e <test_25+0x4>
 352:	ff0003b7          	lui	t2,0xff000
 356:	22731463          	bne	t1,t2,57e <fail>

0000035a <test_26>:
 35a:	41e9                	li	gp,26
 35c:	4201                	li	tp,0
 35e:	800000b7          	lui	ra,0x80000
 362:	4139                	li	sp,14
 364:	4020d733          	sra	a4,ra,sp
 368:	0001                	nop
 36a:	833a                	mv	t1,a4
 36c:	0205                	addi	tp,tp,1 # 1 <_start+0x1>
 36e:	4289                	li	t0,2
 370:	fe5217e3          	bne	tp,t0,35e <test_26+0x4>
 374:	7381                	lui	t2,0xfffe0
 376:	20731463          	bne	t1,t2,57e <fail>

0000037a <test_27>:
 37a:	41ed                	li	gp,27
 37c:	4201                	li	tp,0
 37e:	800000b7          	lui	ra,0x80000
 382:	417d                	li	sp,31
 384:	4020d733          	sra	a4,ra,sp
 388:	0001                	nop
 38a:	0001                	nop
 38c:	833a                	mv	t1,a4
 38e:	0205                	addi	tp,tp,1 # 1 <_start+0x1>
 390:	4289                	li	t0,2
 392:	fe5216e3          	bne	tp,t0,37e <test_27+0x4>
 396:	fff00393          	li	t2,-1
 39a:	1e731263          	bne	t1,t2,57e <fail>

0000039e <test_28>:
 39e:	41f1                	li	gp,28
 3a0:	4201                	li	tp,0
 3a2:	800000b7          	lui	ra,0x80000
 3a6:	411d                	li	sp,7
 3a8:	4020d733          	sra	a4,ra,sp
 3ac:	0205                	addi	tp,tp,1 # 1 <_start+0x1>
 3ae:	4289                	li	t0,2
 3b0:	fe5219e3          	bne	tp,t0,3a2 <test_28+0x4>
 3b4:	ff0003b7          	lui	t2,0xff000
 3b8:	1c771363          	bne	a4,t2,57e <fail>

000003bc <test_29>:
 3bc:	41f5                	li	gp,29
 3be:	4201                	li	tp,0
 3c0:	800000b7          	lui	ra,0x80000
 3c4:	4139                	li	sp,14
 3c6:	0001                	nop
 3c8:	4020d733          	sra	a4,ra,sp
 3cc:	0205                	addi	tp,tp,1 # 1 <_start+0x1>
 3ce:	4289                	li	t0,2
 3d0:	fe5218e3          	bne	tp,t0,3c0 <test_29+0x4>
 3d4:	7381                	lui	t2,0xfffe0
 3d6:	1a771463          	bne	a4,t2,57e <fail>

000003da <test_30>:
 3da:	41f9                	li	gp,30
 3dc:	4201                	li	tp,0
 3de:	800000b7          	lui	ra,0x80000
 3e2:	417d                	li	sp,31
 3e4:	0001                	nop
 3e6:	0001                	nop
 3e8:	4020d733          	sra	a4,ra,sp
 3ec:	0205                	addi	tp,tp,1 # 1 <_start+0x1>
 3ee:	4289                	li	t0,2
 3f0:	fe5217e3          	bne	tp,t0,3de <test_30+0x4>
 3f4:	fff00393          	li	t2,-1
 3f8:	18771363          	bne	a4,t2,57e <fail>

000003fc <test_31>:
 3fc:	41fd                	li	gp,31
 3fe:	4201                	li	tp,0
 400:	800000b7          	lui	ra,0x80000
 404:	0001                	nop
 406:	411d                	li	sp,7
 408:	4020d733          	sra	a4,ra,sp
 40c:	0205                	addi	tp,tp,1 # 1 <_start+0x1>
 40e:	4289                	li	t0,2
 410:	fe5218e3          	bne	tp,t0,400 <test_31+0x4>
 414:	ff0003b7          	lui	t2,0xff000
 418:	16771363          	bne	a4,t2,57e <fail>

0000041c <test_32>:
 41c:	02000193          	li	gp,32
 420:	4201                	li	tp,0
 422:	800000b7          	lui	ra,0x80000
 426:	0001                	nop
 428:	4139                	li	sp,14
 42a:	0001                	nop
 42c:	4020d733          	sra	a4,ra,sp
 430:	0205                	addi	tp,tp,1 # 1 <_start+0x1>
 432:	4289                	li	t0,2
 434:	fe5217e3          	bne	tp,t0,422 <test_32+0x6>
 438:	7381                	lui	t2,0xfffe0
 43a:	14771263          	bne	a4,t2,57e <fail>

0000043e <test_33>:
 43e:	02100193          	li	gp,33
 442:	4201                	li	tp,0
 444:	800000b7          	lui	ra,0x80000
 448:	0001                	nop
 44a:	0001                	nop
 44c:	417d                	li	sp,31
 44e:	4020d733          	sra	a4,ra,sp
 452:	0205                	addi	tp,tp,1 # 1 <_start+0x1>
 454:	4289                	li	t0,2
 456:	fe5217e3          	bne	tp,t0,444 <test_33+0x6>
 45a:	fff00393          	li	t2,-1
 45e:	12771063          	bne	a4,t2,57e <fail>

00000462 <test_34>:
 462:	02200193          	li	gp,34
 466:	4201                	li	tp,0
 468:	411d                	li	sp,7
 46a:	800000b7          	lui	ra,0x80000
 46e:	4020d733          	sra	a4,ra,sp
 472:	0205                	addi	tp,tp,1 # 1 <_start+0x1>
 474:	4289                	li	t0,2
 476:	fe5219e3          	bne	tp,t0,468 <test_34+0x6>
 47a:	ff0003b7          	lui	t2,0xff000
 47e:	10771063          	bne	a4,t2,57e <fail>

00000482 <test_35>:
 482:	02300193          	li	gp,35
 486:	4201                	li	tp,0
 488:	4139                	li	sp,14
 48a:	800000b7          	lui	ra,0x80000
 48e:	0001                	nop
 490:	4020d733          	sra	a4,ra,sp
 494:	0205                	addi	tp,tp,1 # 1 <_start+0x1>
 496:	4289                	li	t0,2
 498:	fe5218e3          	bne	tp,t0,488 <test_35+0x6>
 49c:	7381                	lui	t2,0xfffe0
 49e:	0e771063          	bne	a4,t2,57e <fail>

000004a2 <test_36>:
 4a2:	02400193          	li	gp,36
 4a6:	4201                	li	tp,0
 4a8:	417d                	li	sp,31
 4aa:	800000b7          	lui	ra,0x80000
 4ae:	0001                	nop
 4b0:	0001                	nop
 4b2:	4020d733          	sra	a4,ra,sp
 4b6:	0205                	addi	tp,tp,1 # 1 <_start+0x1>
 4b8:	4289                	li	t0,2
 4ba:	fe5217e3          	bne	tp,t0,4a8 <test_36+0x6>
 4be:	fff00393          	li	t2,-1
 4c2:	0a771e63          	bne	a4,t2,57e <fail>

000004c6 <test_37>:
 4c6:	02500193          	li	gp,37
 4ca:	4201                	li	tp,0
 4cc:	411d                	li	sp,7
 4ce:	0001                	nop
 4d0:	800000b7          	lui	ra,0x80000
 4d4:	4020d733          	sra	a4,ra,sp
 4d8:	0205                	addi	tp,tp,1 # 1 <_start+0x1>
 4da:	4289                	li	t0,2
 4dc:	fe5218e3          	bne	tp,t0,4cc <test_37+0x6>
 4e0:	ff0003b7          	lui	t2,0xff000
 4e4:	08771d63          	bne	a4,t2,57e <fail>

000004e8 <test_38>:
 4e8:	02600193          	li	gp,38
 4ec:	4201                	li	tp,0
 4ee:	4139                	li	sp,14
 4f0:	0001                	nop
 4f2:	800000b7          	lui	ra,0x80000
 4f6:	0001                	nop
 4f8:	4020d733          	sra	a4,ra,sp
 4fc:	0205                	addi	tp,tp,1 # 1 <_start+0x1>
 4fe:	4289                	li	t0,2
 500:	fe5217e3          	bne	tp,t0,4ee <test_38+0x6>
 504:	7381                	lui	t2,0xfffe0
 506:	06771c63          	bne	a4,t2,57e <fail>

0000050a <test_39>:
 50a:	02700193          	li	gp,39
 50e:	4201                	li	tp,0
 510:	417d                	li	sp,31
 512:	0001                	nop
 514:	0001                	nop
 516:	800000b7          	lui	ra,0x80000
 51a:	4020d733          	sra	a4,ra,sp
 51e:	0205                	addi	tp,tp,1 # 1 <_start+0x1>
 520:	4289                	li	t0,2
 522:	fe5217e3          	bne	tp,t0,510 <test_39+0x6>
 526:	fff00393          	li	t2,-1
 52a:	04771a63          	bne	a4,t2,57e <fail>

0000052e <test_40>:
 52e:	02800193          	li	gp,40
 532:	40bd                	li	ra,15
 534:	40105133          	sra	sp,zero,ra
 538:	4381                	li	t2,0
 53a:	04711263          	bne	sp,t2,57e <fail>

0000053e <test_41>:
 53e:	02900193          	li	gp,41
 542:	02000093          	li	ra,32
 546:	4000d133          	sra	sp,ra,zero
 54a:	02000393          	li	t2,32
 54e:	02711863          	bne	sp,t2,57e <fail>

00000552 <test_42>:
 552:	02a00193          	li	gp,42
 556:	400050b3          	sra	ra,zero,zero
 55a:	4381                	li	t2,0
 55c:	02709163          	bne	ra,t2,57e <fail>

00000560 <test_43>:
 560:	02b00193          	li	gp,43
 564:	40000093          	li	ra,1024
 568:	00001137          	lui	sp,0x1
 56c:	80010113          	addi	sp,sp,-2048 # 800 <pass+0x26a>
 570:	4020d033          	sra	zero,ra,sp
 574:	4381                	li	t2,0
 576:	00701463          	bne	zero,t2,57e <fail>
 57a:	00301e63          	bne	zero,gp,596 <pass>

0000057e <fail>:
 57e:	0ff0000f          	fence
 582:	00018063          	beqz	gp,582 <fail+0x4>
 586:	0186                	slli	gp,gp,0x1
 588:	0011e193          	ori	gp,gp,1
 58c:	05d00893          	li	a7,93
 590:	850e                	mv	a0,gp
 592:	00000073          	ecall

00000596 <pass>:
 596:	0ff0000f          	fence
 59a:	4185                	li	gp,1
 59c:	05d00893          	li	a7,93
 5a0:	4501                	li	a0,0
 5a2:	00000073          	ecall
	...
