
/home/thanhtran/fpga/rv32e/tb/riscv-tests/rv32ui/st_ld.S.v2:     file format elf32-littleriscv


Disassembly of section .text:

00000000 <_start>:
   0:	a825                	j	38 <reset_vector>
   2:	0001                	nop

00000004 <trap_vector>:
   4:	34202f73          	csrr	t5,mcause
   8:	4fa1                	li	t6,8
   a:	03ff0463          	beq	t5,t6,32 <write_tohost>
   e:	4fa5                	li	t6,9
  10:	03ff0163          	beq	t5,t6,32 <write_tohost>
  14:	4fad                	li	t6,11
  16:	01ff0e63          	beq	t5,t6,32 <write_tohost>
  1a:	00000f13          	li	t5,0
  1e:	000f0363          	beqz	t5,24 <trap_vector+0x20>
  22:	8f02                	jr	t5
  24:	34202f73          	csrr	t5,mcause
  28:	000f5363          	bgez	t5,2e <handle_exception>
  2c:	a009                	j	2e <handle_exception>

0000002e <handle_exception>:
  2e:	5391e193          	ori	gp,gp,1337

00000032 <write_tohost>:
  32:	8831a023          	sw	gp,-1920(gp) # 1000080 <tohost>
  36:	bff5                	j	32 <write_tohost>

00000038 <reset_vector>:
  38:	4081                	li	ra,0
  3a:	4101                	li	sp,0
  3c:	4181                	li	gp,0
  3e:	4201                	li	tp,0
  40:	4281                	li	t0,0
  42:	4301                	li	t1,0
  44:	4381                	li	t2,0
  46:	4401                	li	s0,0
  48:	4481                	li	s1,0
  4a:	4501                	li	a0,0
  4c:	4581                	li	a1,0
  4e:	4601                	li	a2,0
  50:	4681                	li	a3,0
  52:	4701                	li	a4,0
  54:	4781                	li	a5,0
  56:	4801                	li	a6,0
  58:	4881                	li	a7,0
  5a:	4901                	li	s2,0
  5c:	4981                	li	s3,0
  5e:	4a01                	li	s4,0
  60:	4a81                	li	s5,0
  62:	4b01                	li	s6,0
  64:	4b81                	li	s7,0
  66:	4c01                	li	s8,0
  68:	4c81                	li	s9,0
  6a:	4d01                	li	s10,0
  6c:	4d81                	li	s11,0
  6e:	4e01                	li	t3,0
  70:	4e81                	li	t4,0
  72:	4f01                	li	t5,0
  74:	4f81                	li	t6,0
  76:	f1402573          	csrr	a0,mhartid
  7a:	e101                	bnez	a0,7a <reset_vector+0x42>
  7c:	00000297          	auipc	t0,0x0
  80:	01028293          	addi	t0,t0,16 # 8c <reset_vector+0x54>
  84:	30529073          	csrw	mtvec,t0
  88:	18005073          	csrwi	satp,0
  8c:	00000297          	auipc	t0,0x0
  90:	01c28293          	addi	t0,t0,28 # a8 <reset_vector+0x70>
  94:	30529073          	csrw	mtvec,t0
  98:	800002b7          	lui	t0,0x80000
  9c:	12fd                	addi	t0,t0,-1 # 7fffffff <__global_pointer$+0x7efff7ff>
  9e:	3b029073          	csrw	pmpaddr0,t0
  a2:	42fd                	li	t0,31
  a4:	3a029073          	csrw	pmpcfg0,t0
  a8:	30405073          	csrwi	mie,0
  ac:	00000297          	auipc	t0,0x0
  b0:	01428293          	addi	t0,t0,20 # c0 <reset_vector+0x88>
  b4:	30529073          	csrw	mtvec,t0
  b8:	30205073          	csrwi	medeleg,0
  bc:	30305073          	csrwi	mideleg,0
  c0:	4181                	li	gp,0
  c2:	00000297          	auipc	t0,0x0
  c6:	f4228293          	addi	t0,t0,-190 # 4 <trap_vector>
  ca:	30529073          	csrw	mtvec,t0
  ce:	4505                	li	a0,1
  d0:	057e                	slli	a0,a0,0x1f
  d2:	00054a63          	bltz	a0,e6 <reset_vector+0xae>
  d6:	0ff0000f          	fence
  da:	4185                	li	gp,1
  dc:	05d00893          	li	a7,93
  e0:	4501                	li	a0,0
  e2:	00000073          	ecall
  e6:	00000293          	li	t0,0
  ea:	00028963          	beqz	t0,fc <reset_vector+0xc4>
  ee:	10529073          	csrw	stvec,t0
  f2:	62ad                	lui	t0,0xb
  f4:	10928293          	addi	t0,t0,265 # b109 <pass+0xa9c9>
  f8:	30229073          	csrw	medeleg,t0
  fc:	30005073          	csrwi	mstatus,0
 100:	00000297          	auipc	t0,0x0
 104:	01428293          	addi	t0,t0,20 # 114 <test_2>
 108:	34129073          	csrw	mepc,t0
 10c:	f1402573          	csrr	a0,mhartid
 110:	30200073          	mret

00000114 <test_2>:
 114:	4189                	li	gp,2
 116:	01000117          	auipc	sp,0x1000
 11a:	eea10113          	addi	sp,sp,-278 # 1000000 <__DATA_BEGIN__>
 11e:	fdd00093          	li	ra,-35
 122:	00110023          	sb	ra,0(sp)
 126:	00010703          	lb	a4,0(sp)
 12a:	fdd00393          	li	t2,-35
 12e:	5e771d63          	bne	a4,t2,728 <fail>

00000132 <test_3>:
 132:	418d                	li	gp,3
 134:	01000117          	auipc	sp,0x1000
 138:	ecc10113          	addi	sp,sp,-308 # 1000000 <__DATA_BEGIN__>
 13c:	fcd00093          	li	ra,-51
 140:	001100a3          	sb	ra,1(sp)
 144:	00110703          	lb	a4,1(sp)
 148:	fcd00393          	li	t2,-51
 14c:	5c771e63          	bne	a4,t2,728 <fail>

00000150 <test_4>:
 150:	4191                	li	gp,4
 152:	01000117          	auipc	sp,0x1000
 156:	eae10113          	addi	sp,sp,-338 # 1000000 <__DATA_BEGIN__>
 15a:	fcc00093          	li	ra,-52
 15e:	00110123          	sb	ra,2(sp)
 162:	00210703          	lb	a4,2(sp)
 166:	fcc00393          	li	t2,-52
 16a:	5a771f63          	bne	a4,t2,728 <fail>

0000016e <test_5>:
 16e:	4195                	li	gp,5
 170:	01000117          	auipc	sp,0x1000
 174:	e9010113          	addi	sp,sp,-368 # 1000000 <__DATA_BEGIN__>
 178:	fbc00093          	li	ra,-68
 17c:	001101a3          	sb	ra,3(sp)
 180:	00310703          	lb	a4,3(sp)
 184:	fbc00393          	li	t2,-68
 188:	5a771063          	bne	a4,t2,728 <fail>

0000018c <test_6>:
 18c:	4199                	li	gp,6
 18e:	01000117          	auipc	sp,0x1000
 192:	e7210113          	addi	sp,sp,-398 # 1000000 <__DATA_BEGIN__>
 196:	fbb00093          	li	ra,-69
 19a:	00110223          	sb	ra,4(sp)
 19e:	00410703          	lb	a4,4(sp)
 1a2:	fbb00393          	li	t2,-69
 1a6:	58771163          	bne	a4,t2,728 <fail>

000001aa <test_7>:
 1aa:	419d                	li	gp,7
 1ac:	01000117          	auipc	sp,0x1000
 1b0:	e5410113          	addi	sp,sp,-428 # 1000000 <__DATA_BEGIN__>
 1b4:	fab00093          	li	ra,-85
 1b8:	001102a3          	sb	ra,5(sp)
 1bc:	00510703          	lb	a4,5(sp)
 1c0:	fab00393          	li	t2,-85
 1c4:	56771263          	bne	a4,t2,728 <fail>

000001c8 <test_8>:
 1c8:	41a1                	li	gp,8
 1ca:	01000117          	auipc	sp,0x1000
 1ce:	e3610113          	addi	sp,sp,-458 # 1000000 <__DATA_BEGIN__>
 1d2:	03300093          	li	ra,51
 1d6:	00110023          	sb	ra,0(sp)
 1da:	00010703          	lb	a4,0(sp)
 1de:	03300393          	li	t2,51
 1e2:	54771363          	bne	a4,t2,728 <fail>

000001e6 <test_9>:
 1e6:	41a5                	li	gp,9
 1e8:	01000117          	auipc	sp,0x1000
 1ec:	e1810113          	addi	sp,sp,-488 # 1000000 <__DATA_BEGIN__>
 1f0:	02300093          	li	ra,35
 1f4:	001100a3          	sb	ra,1(sp)
 1f8:	00110703          	lb	a4,1(sp)
 1fc:	02300393          	li	t2,35
 200:	52771463          	bne	a4,t2,728 <fail>

00000204 <test_10>:
 204:	41a9                	li	gp,10
 206:	01000117          	auipc	sp,0x1000
 20a:	dfa10113          	addi	sp,sp,-518 # 1000000 <__DATA_BEGIN__>
 20e:	02200093          	li	ra,34
 212:	00110123          	sb	ra,2(sp)
 216:	00210703          	lb	a4,2(sp)
 21a:	02200393          	li	t2,34
 21e:	50771563          	bne	a4,t2,728 <fail>

00000222 <test_11>:
 222:	41ad                	li	gp,11
 224:	01000117          	auipc	sp,0x1000
 228:	ddc10113          	addi	sp,sp,-548 # 1000000 <__DATA_BEGIN__>
 22c:	40c9                	li	ra,18
 22e:	001101a3          	sb	ra,3(sp)
 232:	00310703          	lb	a4,3(sp)
 236:	43c9                	li	t2,18
 238:	4e771863          	bne	a4,t2,728 <fail>

0000023c <test_12>:
 23c:	41b1                	li	gp,12
 23e:	01000117          	auipc	sp,0x1000
 242:	dc210113          	addi	sp,sp,-574 # 1000000 <__DATA_BEGIN__>
 246:	40c5                	li	ra,17
 248:	00110223          	sb	ra,4(sp)
 24c:	00410703          	lb	a4,4(sp)
 250:	43c5                	li	t2,17
 252:	4c771b63          	bne	a4,t2,728 <fail>

00000256 <test_13>:
 256:	41b5                	li	gp,13
 258:	01000117          	auipc	sp,0x1000
 25c:	da810113          	addi	sp,sp,-600 # 1000000 <__DATA_BEGIN__>
 260:	4085                	li	ra,1
 262:	001102a3          	sb	ra,5(sp)
 266:	00510703          	lb	a4,5(sp)
 26a:	4385                	li	t2,1
 26c:	4a771e63          	bne	a4,t2,728 <fail>

00000270 <test_14>:
 270:	41b9                	li	gp,14
 272:	01000117          	auipc	sp,0x1000
 276:	d8e10113          	addi	sp,sp,-626 # 1000000 <__DATA_BEGIN__>
 27a:	03300093          	li	ra,51
 27e:	00110023          	sb	ra,0(sp)
 282:	00014703          	lbu	a4,0(sp)
 286:	03300393          	li	t2,51
 28a:	48771f63          	bne	a4,t2,728 <fail>

0000028e <test_15>:
 28e:	41bd                	li	gp,15
 290:	01000117          	auipc	sp,0x1000
 294:	d7010113          	addi	sp,sp,-656 # 1000000 <__DATA_BEGIN__>
 298:	02300093          	li	ra,35
 29c:	001100a3          	sb	ra,1(sp)
 2a0:	00114703          	lbu	a4,1(sp)
 2a4:	02300393          	li	t2,35
 2a8:	48771063          	bne	a4,t2,728 <fail>

000002ac <test_16>:
 2ac:	41c1                	li	gp,16
 2ae:	01000117          	auipc	sp,0x1000
 2b2:	d5210113          	addi	sp,sp,-686 # 1000000 <__DATA_BEGIN__>
 2b6:	02200093          	li	ra,34
 2ba:	00110123          	sb	ra,2(sp)
 2be:	00214703          	lbu	a4,2(sp)
 2c2:	02200393          	li	t2,34
 2c6:	46771163          	bne	a4,t2,728 <fail>

000002ca <test_17>:
 2ca:	41c5                	li	gp,17
 2cc:	01000117          	auipc	sp,0x1000
 2d0:	d3410113          	addi	sp,sp,-716 # 1000000 <__DATA_BEGIN__>
 2d4:	40c9                	li	ra,18
 2d6:	001101a3          	sb	ra,3(sp)
 2da:	00314703          	lbu	a4,3(sp)
 2de:	43c9                	li	t2,18
 2e0:	44771463          	bne	a4,t2,728 <fail>

000002e4 <test_18>:
 2e4:	41c9                	li	gp,18
 2e6:	01000117          	auipc	sp,0x1000
 2ea:	d1a10113          	addi	sp,sp,-742 # 1000000 <__DATA_BEGIN__>
 2ee:	40c5                	li	ra,17
 2f0:	00110223          	sb	ra,4(sp)
 2f4:	00414703          	lbu	a4,4(sp)
 2f8:	43c5                	li	t2,17
 2fa:	42771763          	bne	a4,t2,728 <fail>

000002fe <test_19>:
 2fe:	41cd                	li	gp,19
 300:	01000117          	auipc	sp,0x1000
 304:	d0010113          	addi	sp,sp,-768 # 1000000 <__DATA_BEGIN__>
 308:	4085                	li	ra,1
 30a:	001102a3          	sb	ra,5(sp)
 30e:	00514703          	lbu	a4,5(sp)
 312:	4385                	li	t2,1
 314:	40771a63          	bne	a4,t2,728 <fail>

00000318 <test_20>:
 318:	41d1                	li	gp,20
 31a:	01000117          	auipc	sp,0x1000
 31e:	ce610113          	addi	sp,sp,-794 # 1000000 <__DATA_BEGIN__>
 322:	aabbd0b7          	lui	ra,0xaabbd
 326:	cdd08093          	addi	ra,ra,-803 # aabbccdd <__global_pointer$+0xa9bbc4dd>
 32a:	c006                	sw	ra,0(sp)
 32c:	4702                	lw	a4,0(sp)
 32e:	aabbd3b7          	lui	t2,0xaabbd
 332:	cdd38393          	addi	t2,t2,-803 # aabbccdd <__global_pointer$+0xa9bbc4dd>
 336:	3e771963          	bne	a4,t2,728 <fail>

0000033a <test_21>:
 33a:	41d5                	li	gp,21
 33c:	01000117          	auipc	sp,0x1000
 340:	cc410113          	addi	sp,sp,-828 # 1000000 <__DATA_BEGIN__>
 344:	daabc0b7          	lui	ra,0xdaabc
 348:	ccd08093          	addi	ra,ra,-819 # daabbccd <__global_pointer$+0xd9abb4cd>
 34c:	c206                	sw	ra,4(sp)
 34e:	4712                	lw	a4,4(sp)
 350:	daabc3b7          	lui	t2,0xdaabc
 354:	ccd38393          	addi	t2,t2,-819 # daabbccd <__global_pointer$+0xd9abb4cd>
 358:	3c771863          	bne	a4,t2,728 <fail>

0000035c <test_22>:
 35c:	41d9                	li	gp,22
 35e:	01000117          	auipc	sp,0x1000
 362:	ca210113          	addi	sp,sp,-862 # 1000000 <__DATA_BEGIN__>
 366:	ddaac0b7          	lui	ra,0xddaac
 36a:	bcc08093          	addi	ra,ra,-1076 # ddaabbcc <__global_pointer$+0xdcaab3cc>
 36e:	c406                	sw	ra,8(sp)
 370:	4722                	lw	a4,8(sp)
 372:	ddaac3b7          	lui	t2,0xddaac
 376:	bcc38393          	addi	t2,t2,-1076 # ddaabbcc <__global_pointer$+0xdcaab3cc>
 37a:	3a771763          	bne	a4,t2,728 <fail>

0000037e <test_23>:
 37e:	41dd                	li	gp,23
 380:	01000117          	auipc	sp,0x1000
 384:	c8010113          	addi	sp,sp,-896 # 1000000 <__DATA_BEGIN__>
 388:	cddab0b7          	lui	ra,0xcddab
 38c:	bbc08093          	addi	ra,ra,-1092 # cddaabbc <__global_pointer$+0xccdaa3bc>
 390:	c606                	sw	ra,12(sp)
 392:	4732                	lw	a4,12(sp)
 394:	cddab3b7          	lui	t2,0xcddab
 398:	bbc38393          	addi	t2,t2,-1092 # cddaabbc <__global_pointer$+0xccdaa3bc>
 39c:	38771663          	bne	a4,t2,728 <fail>

000003a0 <test_24>:
 3a0:	41e1                	li	gp,24
 3a2:	01000117          	auipc	sp,0x1000
 3a6:	c5e10113          	addi	sp,sp,-930 # 1000000 <__DATA_BEGIN__>
 3aa:	ccddb0b7          	lui	ra,0xccddb
 3ae:	abb08093          	addi	ra,ra,-1349 # ccddaabb <__global_pointer$+0xcbdda2bb>
 3b2:	c806                	sw	ra,16(sp)
 3b4:	4742                	lw	a4,16(sp)
 3b6:	ccddb3b7          	lui	t2,0xccddb
 3ba:	abb38393          	addi	t2,t2,-1349 # ccddaabb <__global_pointer$+0xcbdda2bb>
 3be:	36771563          	bne	a4,t2,728 <fail>

000003c2 <test_25>:
 3c2:	41e5                	li	gp,25
 3c4:	01000117          	auipc	sp,0x1000
 3c8:	c3c10113          	addi	sp,sp,-964 # 1000000 <__DATA_BEGIN__>
 3cc:	bccde0b7          	lui	ra,0xbccde
 3d0:	aab08093          	addi	ra,ra,-1365 # bccddaab <__global_pointer$+0xbbcdd2ab>
 3d4:	ca06                	sw	ra,20(sp)
 3d6:	4752                	lw	a4,20(sp)
 3d8:	bccde3b7          	lui	t2,0xbccde
 3dc:	aab38393          	addi	t2,t2,-1365 # bccddaab <__global_pointer$+0xbbcdd2ab>
 3e0:	34771463          	bne	a4,t2,728 <fail>

000003e4 <test_26>:
 3e4:	41e9                	li	gp,26
 3e6:	01000117          	auipc	sp,0x1000
 3ea:	c1a10113          	addi	sp,sp,-998 # 1000000 <__DATA_BEGIN__>
 3ee:	001120b7          	lui	ra,0x112
 3f2:	23308093          	addi	ra,ra,563 # 112233 <pass+0x111af3>
 3f6:	c006                	sw	ra,0(sp)
 3f8:	4702                	lw	a4,0(sp)
 3fa:	001123b7          	lui	t2,0x112
 3fe:	23338393          	addi	t2,t2,563 # 112233 <pass+0x111af3>
 402:	32771363          	bne	a4,t2,728 <fail>

00000406 <test_27>:
 406:	41ed                	li	gp,27
 408:	01000117          	auipc	sp,0x1000
 40c:	bf810113          	addi	sp,sp,-1032 # 1000000 <__DATA_BEGIN__>
 410:	300110b7          	lui	ra,0x30011
 414:	22308093          	addi	ra,ra,547 # 30011223 <__global_pointer$+0x2f010a23>
 418:	c206                	sw	ra,4(sp)
 41a:	4712                	lw	a4,4(sp)
 41c:	300113b7          	lui	t2,0x30011
 420:	22338393          	addi	t2,t2,547 # 30011223 <__global_pointer$+0x2f010a23>
 424:	30771263          	bne	a4,t2,728 <fail>

00000428 <test_28>:
 428:	41f1                	li	gp,28
 42a:	01000117          	auipc	sp,0x1000
 42e:	bd610113          	addi	sp,sp,-1066 # 1000000 <__DATA_BEGIN__>
 432:	330010b7          	lui	ra,0x33001
 436:	12208093          	addi	ra,ra,290 # 33001122 <__global_pointer$+0x32000922>
 43a:	c406                	sw	ra,8(sp)
 43c:	4722                	lw	a4,8(sp)
 43e:	330013b7          	lui	t2,0x33001
 442:	12238393          	addi	t2,t2,290 # 33001122 <__global_pointer$+0x32000922>
 446:	2e771163          	bne	a4,t2,728 <fail>

0000044a <test_29>:
 44a:	41f5                	li	gp,29
 44c:	01000117          	auipc	sp,0x1000
 450:	bb410113          	addi	sp,sp,-1100 # 1000000 <__DATA_BEGIN__>
 454:	233000b7          	lui	ra,0x23300
 458:	11208093          	addi	ra,ra,274 # 23300112 <__global_pointer$+0x222ff912>
 45c:	c606                	sw	ra,12(sp)
 45e:	4732                	lw	a4,12(sp)
 460:	233003b7          	lui	t2,0x23300
 464:	11238393          	addi	t2,t2,274 # 23300112 <__global_pointer$+0x222ff912>
 468:	2c771063          	bne	a4,t2,728 <fail>

0000046c <test_30>:
 46c:	41f9                	li	gp,30
 46e:	01000117          	auipc	sp,0x1000
 472:	b9210113          	addi	sp,sp,-1134 # 1000000 <__DATA_BEGIN__>
 476:	223300b7          	lui	ra,0x22330
 47a:	00c5                	addi	ra,ra,17 # 22330011 <__global_pointer$+0x2132f811>
 47c:	c806                	sw	ra,16(sp)
 47e:	4742                	lw	a4,16(sp)
 480:	223303b7          	lui	t2,0x22330
 484:	03c5                	addi	t2,t2,17 # 22330011 <__global_pointer$+0x2132f811>
 486:	2a771163          	bne	a4,t2,728 <fail>

0000048a <test_31>:
 48a:	41fd                	li	gp,31
 48c:	01000117          	auipc	sp,0x1000
 490:	b7410113          	addi	sp,sp,-1164 # 1000000 <__DATA_BEGIN__>
 494:	122330b7          	lui	ra,0x12233
 498:	0085                	addi	ra,ra,1 # 12233001 <__global_pointer$+0x11232801>
 49a:	ca06                	sw	ra,20(sp)
 49c:	4752                	lw	a4,20(sp)
 49e:	122333b7          	lui	t2,0x12233
 4a2:	0385                	addi	t2,t2,1 # 12233001 <__global_pointer$+0x11232801>
 4a4:	28771263          	bne	a4,t2,728 <fail>

000004a8 <test_32>:
 4a8:	02000193          	li	gp,32
 4ac:	01000117          	auipc	sp,0x1000
 4b0:	b5410113          	addi	sp,sp,-1196 # 1000000 <__DATA_BEGIN__>
 4b4:	70f5                	lui	ra,0xffffd
 4b6:	cdd08093          	addi	ra,ra,-803 # ffffccdd <__global_pointer$+0xfeffc4dd>
 4ba:	00111023          	sh	ra,0(sp)
 4be:	00011703          	lh	a4,0(sp)
 4c2:	73f5                	lui	t2,0xffffd
 4c4:	cdd38393          	addi	t2,t2,-803 # ffffccdd <__global_pointer$+0xfeffc4dd>
 4c8:	26771063          	bne	a4,t2,728 <fail>

000004cc <test_33>:
 4cc:	02100193          	li	gp,33
 4d0:	01000117          	auipc	sp,0x1000
 4d4:	b3010113          	addi	sp,sp,-1232 # 1000000 <__DATA_BEGIN__>
 4d8:	70f1                	lui	ra,0xffffc
 4da:	ccd08093          	addi	ra,ra,-819 # ffffbccd <__global_pointer$+0xfeffb4cd>
 4de:	00111123          	sh	ra,2(sp)
 4e2:	00211703          	lh	a4,2(sp)
 4e6:	73f1                	lui	t2,0xffffc
 4e8:	ccd38393          	addi	t2,t2,-819 # ffffbccd <__global_pointer$+0xfeffb4cd>
 4ec:	22771e63          	bne	a4,t2,728 <fail>

000004f0 <test_34>:
 4f0:	02200193          	li	gp,34
 4f4:	01000117          	auipc	sp,0x1000
 4f8:	b0c10113          	addi	sp,sp,-1268 # 1000000 <__DATA_BEGIN__>
 4fc:	70f1                	lui	ra,0xffffc
 4fe:	bcc08093          	addi	ra,ra,-1076 # ffffbbcc <__global_pointer$+0xfeffb3cc>
 502:	00111223          	sh	ra,4(sp)
 506:	00411703          	lh	a4,4(sp)
 50a:	73f1                	lui	t2,0xffffc
 50c:	bcc38393          	addi	t2,t2,-1076 # ffffbbcc <__global_pointer$+0xfeffb3cc>
 510:	20771c63          	bne	a4,t2,728 <fail>

00000514 <test_35>:
 514:	02300193          	li	gp,35
 518:	01000117          	auipc	sp,0x1000
 51c:	ae810113          	addi	sp,sp,-1304 # 1000000 <__DATA_BEGIN__>
 520:	70ed                	lui	ra,0xffffb
 522:	bbc08093          	addi	ra,ra,-1092 # ffffabbc <__global_pointer$+0xfeffa3bc>
 526:	00111323          	sh	ra,6(sp)
 52a:	00611703          	lh	a4,6(sp)
 52e:	73ed                	lui	t2,0xffffb
 530:	bbc38393          	addi	t2,t2,-1092 # ffffabbc <__global_pointer$+0xfeffa3bc>
 534:	1e771a63          	bne	a4,t2,728 <fail>

00000538 <test_36>:
 538:	02400193          	li	gp,36
 53c:	01000117          	auipc	sp,0x1000
 540:	ac410113          	addi	sp,sp,-1340 # 1000000 <__DATA_BEGIN__>
 544:	70ed                	lui	ra,0xffffb
 546:	abb08093          	addi	ra,ra,-1349 # ffffaabb <__global_pointer$+0xfeffa2bb>
 54a:	00111423          	sh	ra,8(sp)
 54e:	00811703          	lh	a4,8(sp)
 552:	73ed                	lui	t2,0xffffb
 554:	abb38393          	addi	t2,t2,-1349 # ffffaabb <__global_pointer$+0xfeffa2bb>
 558:	1c771863          	bne	a4,t2,728 <fail>

0000055c <test_37>:
 55c:	02500193          	li	gp,37
 560:	01000117          	auipc	sp,0x1000
 564:	aa010113          	addi	sp,sp,-1376 # 1000000 <__DATA_BEGIN__>
 568:	70f9                	lui	ra,0xffffe
 56a:	aab08093          	addi	ra,ra,-1365 # ffffdaab <__global_pointer$+0xfeffd2ab>
 56e:	00111523          	sh	ra,10(sp)
 572:	00a11703          	lh	a4,10(sp)
 576:	73f9                	lui	t2,0xffffe
 578:	aab38393          	addi	t2,t2,-1365 # ffffdaab <__global_pointer$+0xfeffd2ab>
 57c:	1a771663          	bne	a4,t2,728 <fail>

00000580 <test_38>:
 580:	02600193          	li	gp,38
 584:	01000117          	auipc	sp,0x1000
 588:	a7c10113          	addi	sp,sp,-1412 # 1000000 <__DATA_BEGIN__>
 58c:	6089                	lui	ra,0x2
 58e:	23308093          	addi	ra,ra,563 # 2233 <pass+0x1af3>
 592:	00111023          	sh	ra,0(sp)
 596:	00011703          	lh	a4,0(sp)
 59a:	6389                	lui	t2,0x2
 59c:	23338393          	addi	t2,t2,563 # 2233 <pass+0x1af3>
 5a0:	18771463          	bne	a4,t2,728 <fail>

000005a4 <test_39>:
 5a4:	02700193          	li	gp,39
 5a8:	01000117          	auipc	sp,0x1000
 5ac:	a5810113          	addi	sp,sp,-1448 # 1000000 <__DATA_BEGIN__>
 5b0:	6085                	lui	ra,0x1
 5b2:	22308093          	addi	ra,ra,547 # 1223 <pass+0xae3>
 5b6:	00111123          	sh	ra,2(sp)
 5ba:	00211703          	lh	a4,2(sp)
 5be:	6385                	lui	t2,0x1
 5c0:	22338393          	addi	t2,t2,547 # 1223 <pass+0xae3>
 5c4:	16771263          	bne	a4,t2,728 <fail>

000005c8 <test_40>:
 5c8:	02800193          	li	gp,40
 5cc:	01000117          	auipc	sp,0x1000
 5d0:	a3410113          	addi	sp,sp,-1484 # 1000000 <__DATA_BEGIN__>
 5d4:	6085                	lui	ra,0x1
 5d6:	12208093          	addi	ra,ra,290 # 1122 <pass+0x9e2>
 5da:	00111223          	sh	ra,4(sp)
 5de:	00411703          	lh	a4,4(sp)
 5e2:	6385                	lui	t2,0x1
 5e4:	12238393          	addi	t2,t2,290 # 1122 <pass+0x9e2>
 5e8:	14771063          	bne	a4,t2,728 <fail>

000005ec <test_41>:
 5ec:	02900193          	li	gp,41
 5f0:	01000117          	auipc	sp,0x1000
 5f4:	a1010113          	addi	sp,sp,-1520 # 1000000 <__DATA_BEGIN__>
 5f8:	11200093          	li	ra,274
 5fc:	00111323          	sh	ra,6(sp)
 600:	00611703          	lh	a4,6(sp)
 604:	11200393          	li	t2,274
 608:	12771063          	bne	a4,t2,728 <fail>

0000060c <test_42>:
 60c:	02a00193          	li	gp,42
 610:	01000117          	auipc	sp,0x1000
 614:	9f010113          	addi	sp,sp,-1552 # 1000000 <__DATA_BEGIN__>
 618:	40c5                	li	ra,17
 61a:	00111423          	sh	ra,8(sp)
 61e:	00811703          	lh	a4,8(sp)
 622:	43c5                	li	t2,17
 624:	10771263          	bne	a4,t2,728 <fail>

00000628 <test_43>:
 628:	02b00193          	li	gp,43
 62c:	01000117          	auipc	sp,0x1000
 630:	9d410113          	addi	sp,sp,-1580 # 1000000 <__DATA_BEGIN__>
 634:	608d                	lui	ra,0x3
 636:	0085                	addi	ra,ra,1 # 3001 <pass+0x28c1>
 638:	00111523          	sh	ra,10(sp)
 63c:	00a11703          	lh	a4,10(sp)
 640:	638d                	lui	t2,0x3
 642:	0385                	addi	t2,t2,1 # 3001 <pass+0x28c1>
 644:	0e771263          	bne	a4,t2,728 <fail>

00000648 <test_44>:
 648:	02c00193          	li	gp,44
 64c:	01000117          	auipc	sp,0x1000
 650:	9b410113          	addi	sp,sp,-1612 # 1000000 <__DATA_BEGIN__>
 654:	6089                	lui	ra,0x2
 656:	23308093          	addi	ra,ra,563 # 2233 <pass+0x1af3>
 65a:	00111023          	sh	ra,0(sp)
 65e:	00015703          	lhu	a4,0(sp)
 662:	6389                	lui	t2,0x2
 664:	23338393          	addi	t2,t2,563 # 2233 <pass+0x1af3>
 668:	0c771063          	bne	a4,t2,728 <fail>

0000066c <test_45>:
 66c:	02d00193          	li	gp,45
 670:	01000117          	auipc	sp,0x1000
 674:	99010113          	addi	sp,sp,-1648 # 1000000 <__DATA_BEGIN__>
 678:	6085                	lui	ra,0x1
 67a:	22308093          	addi	ra,ra,547 # 1223 <pass+0xae3>
 67e:	00111123          	sh	ra,2(sp)
 682:	00215703          	lhu	a4,2(sp)
 686:	6385                	lui	t2,0x1
 688:	22338393          	addi	t2,t2,547 # 1223 <pass+0xae3>
 68c:	08771e63          	bne	a4,t2,728 <fail>

00000690 <test_46>:
 690:	02e00193          	li	gp,46
 694:	01000117          	auipc	sp,0x1000
 698:	96c10113          	addi	sp,sp,-1684 # 1000000 <__DATA_BEGIN__>
 69c:	6085                	lui	ra,0x1
 69e:	12208093          	addi	ra,ra,290 # 1122 <pass+0x9e2>
 6a2:	00111223          	sh	ra,4(sp)
 6a6:	00415703          	lhu	a4,4(sp)
 6aa:	6385                	lui	t2,0x1
 6ac:	12238393          	addi	t2,t2,290 # 1122 <pass+0x9e2>
 6b0:	06771c63          	bne	a4,t2,728 <fail>

000006b4 <test_47>:
 6b4:	02f00193          	li	gp,47
 6b8:	01000117          	auipc	sp,0x1000
 6bc:	94810113          	addi	sp,sp,-1720 # 1000000 <__DATA_BEGIN__>
 6c0:	11200093          	li	ra,274
 6c4:	00111323          	sh	ra,6(sp)
 6c8:	00615703          	lhu	a4,6(sp)
 6cc:	11200393          	li	t2,274
 6d0:	04771c63          	bne	a4,t2,728 <fail>

000006d4 <test_48>:
 6d4:	03000193          	li	gp,48
 6d8:	01000117          	auipc	sp,0x1000
 6dc:	92810113          	addi	sp,sp,-1752 # 1000000 <__DATA_BEGIN__>
 6e0:	40c5                	li	ra,17
 6e2:	00111423          	sh	ra,8(sp)
 6e6:	00815703          	lhu	a4,8(sp)
 6ea:	43c5                	li	t2,17
 6ec:	02771e63          	bne	a4,t2,728 <fail>

000006f0 <test_49>:
 6f0:	03100193          	li	gp,49
 6f4:	01000117          	auipc	sp,0x1000
 6f8:	90c10113          	addi	sp,sp,-1780 # 1000000 <__DATA_BEGIN__>
 6fc:	608d                	lui	ra,0x3
 6fe:	0085                	addi	ra,ra,1 # 3001 <pass+0x28c1>
 700:	00111523          	sh	ra,10(sp)
 704:	00a15703          	lhu	a4,10(sp)
 708:	638d                	lui	t2,0x3
 70a:	0385                	addi	t2,t2,1 # 3001 <pass+0x28c1>
 70c:	00771e63          	bne	a4,t2,728 <fail>
 710:	0ef00513          	li	a0,239
 714:	01000597          	auipc	a1,0x1000
 718:	8ec58593          	addi	a1,a1,-1812 # 1000000 <__DATA_BEGIN__>
 71c:	00a581a3          	sb	a0,3(a1)
 720:	00358603          	lb	a2,3(a1)
 724:	00301e63          	bne	zero,gp,740 <pass>

00000728 <fail>:
 728:	0ff0000f          	fence
 72c:	00018063          	beqz	gp,72c <fail+0x4>
 730:	0186                	slli	gp,gp,0x1
 732:	0011e193          	ori	gp,gp,1
 736:	05d00893          	li	a7,93
 73a:	850e                	mv	a0,gp
 73c:	00000073          	ecall

00000740 <pass>:
 740:	0ff0000f          	fence
 744:	4185                	li	gp,1
 746:	05d00893          	li	a7,93
 74a:	4501                	li	a0,0
 74c:	00000073          	ecall
	...
